
USB_TEST.elf:     file format elf32-littlearm

Sections:
Idx Name          Size      VMA       LMA       File off  Algn
  0 .isr_vector   000000c0  08000000  08000000  00010000  2**0
                  CONTENTS, ALLOC, LOAD, READONLY, DATA
  1 .text         00002e84  080000c0  080000c0  000100c0  2**2
                  CONTENTS, ALLOC, LOAD, READONLY, CODE
  2 .rodata       00000060  08002f44  08002f44  00012f44  2**0
                  CONTENTS, ALLOC, LOAD, READONLY, DATA
  3 .ARM.extab    00000000  08002fa4  08002fa4  0002017c  2**0
                  CONTENTS
  4 .ARM          00000000  08002fa4  08002fa4  0002017c  2**0
                  CONTENTS
  5 .preinit_array 00000000  08002fa4  08002fa4  0002017c  2**0
                  CONTENTS, ALLOC, LOAD, DATA
  6 .init_array   00000004  08002fa4  08002fa4  00012fa4  2**2
                  CONTENTS, ALLOC, LOAD, DATA
  7 .fini_array   00000004  08002fa8  08002fa8  00012fa8  2**2
                  CONTENTS, ALLOC, LOAD, DATA
  8 .data         0000017c  20000000  08002fac  00020000  2**2
                  CONTENTS, ALLOC, LOAD, DATA
  9 .bss          0000095c  2000017c  08003128  0002017c  2**2
                  ALLOC
 10 ._user_heap_stack 00000600  20000ad8  08003128  00020ad8  2**0
                  ALLOC
 11 .ARM.attributes 00000028  00000000  00000000  0002017c  2**0
                  CONTENTS, READONLY
 12 .debug_info   00014d20  00000000  00000000  000201a4  2**0
                  CONTENTS, READONLY, DEBUGGING
 13 .debug_abbrev 00003994  00000000  00000000  00034ec4  2**0
                  CONTENTS, READONLY, DEBUGGING
 14 .debug_loc    00006334  00000000  00000000  00038858  2**0
                  CONTENTS, READONLY, DEBUGGING
 15 .debug_aranges 000009f0  00000000  00000000  0003eb90  2**3
                  CONTENTS, READONLY, DEBUGGING
 16 .debug_ranges 00001118  00000000  00000000  0003f580  2**3
                  CONTENTS, READONLY, DEBUGGING
 17 .debug_macro  00018ab9  00000000  00000000  00040698  2**0
                  CONTENTS, READONLY, DEBUGGING
 18 .debug_line   0000d9e9  00000000  00000000  00059151  2**0
                  CONTENTS, READONLY, DEBUGGING
 19 .debug_str    0007a536  00000000  00000000  00066b3a  2**0
                  CONTENTS, READONLY, DEBUGGING
 20 .comment      0000007b  00000000  00000000  000e1070  2**0
                  CONTENTS, READONLY
 21 .debug_frame  000019a0  00000000  00000000  000e10ec  2**2
                  CONTENTS, READONLY, DEBUGGING

Disassembly of section .text:

080000c0 <__do_global_dtors_aux>:
 80000c0:	b510      	push	{r4, lr}
 80000c2:	4c06      	ldr	r4, [pc, #24]	; (80000dc <__do_global_dtors_aux+0x1c>)
 80000c4:	7823      	ldrb	r3, [r4, #0]
 80000c6:	2b00      	cmp	r3, #0
 80000c8:	d107      	bne.n	80000da <__do_global_dtors_aux+0x1a>
 80000ca:	4b05      	ldr	r3, [pc, #20]	; (80000e0 <__do_global_dtors_aux+0x20>)
 80000cc:	2b00      	cmp	r3, #0
 80000ce:	d002      	beq.n	80000d6 <__do_global_dtors_aux+0x16>
 80000d0:	4804      	ldr	r0, [pc, #16]	; (80000e4 <__do_global_dtors_aux+0x24>)
 80000d2:	e000      	b.n	80000d6 <__do_global_dtors_aux+0x16>
 80000d4:	bf00      	nop
 80000d6:	2301      	movs	r3, #1
 80000d8:	7023      	strb	r3, [r4, #0]
 80000da:	bd10      	pop	{r4, pc}
 80000dc:	2000017c 	.word	0x2000017c
 80000e0:	00000000 	.word	0x00000000
 80000e4:	08002f2c 	.word	0x08002f2c

080000e8 <frame_dummy>:
 80000e8:	4b04      	ldr	r3, [pc, #16]	; (80000fc <frame_dummy+0x14>)
 80000ea:	b510      	push	{r4, lr}
 80000ec:	2b00      	cmp	r3, #0
 80000ee:	d003      	beq.n	80000f8 <frame_dummy+0x10>
 80000f0:	4903      	ldr	r1, [pc, #12]	; (8000100 <frame_dummy+0x18>)
 80000f2:	4804      	ldr	r0, [pc, #16]	; (8000104 <frame_dummy+0x1c>)
 80000f4:	e000      	b.n	80000f8 <frame_dummy+0x10>
 80000f6:	bf00      	nop
 80000f8:	bd10      	pop	{r4, pc}
 80000fa:	46c0      	nop			; (mov r8, r8)
 80000fc:	00000000 	.word	0x00000000
 8000100:	20000180 	.word	0x20000180
 8000104:	08002f2c 	.word	0x08002f2c

08000108 <__gnu_thumb1_case_uqi>:
 8000108:	b402      	push	{r1}
 800010a:	4671      	mov	r1, lr
 800010c:	0849      	lsrs	r1, r1, #1
 800010e:	0049      	lsls	r1, r1, #1
 8000110:	5c09      	ldrb	r1, [r1, r0]
 8000112:	0049      	lsls	r1, r1, #1
 8000114:	448e      	add	lr, r1
 8000116:	bc02      	pop	{r1}
 8000118:	4770      	bx	lr
 800011a:	46c0      	nop			; (mov r8, r8)

0800011c <__gnu_thumb1_case_uhi>:
 800011c:	b403      	push	{r0, r1}
 800011e:	4671      	mov	r1, lr
 8000120:	0849      	lsrs	r1, r1, #1
 8000122:	0040      	lsls	r0, r0, #1
 8000124:	0049      	lsls	r1, r1, #1
 8000126:	5a09      	ldrh	r1, [r1, r0]
 8000128:	0049      	lsls	r1, r1, #1
 800012a:	448e      	add	lr, r1
 800012c:	bc03      	pop	{r0, r1}
 800012e:	4770      	bx	lr

08000130 <__udivsi3>:
 8000130:	2200      	movs	r2, #0
 8000132:	0843      	lsrs	r3, r0, #1
 8000134:	428b      	cmp	r3, r1
 8000136:	d374      	bcc.n	8000222 <__udivsi3+0xf2>
 8000138:	0903      	lsrs	r3, r0, #4
 800013a:	428b      	cmp	r3, r1
 800013c:	d35f      	bcc.n	80001fe <__udivsi3+0xce>
 800013e:	0a03      	lsrs	r3, r0, #8
 8000140:	428b      	cmp	r3, r1
 8000142:	d344      	bcc.n	80001ce <__udivsi3+0x9e>
 8000144:	0b03      	lsrs	r3, r0, #12
 8000146:	428b      	cmp	r3, r1
 8000148:	d328      	bcc.n	800019c <__udivsi3+0x6c>
 800014a:	0c03      	lsrs	r3, r0, #16
 800014c:	428b      	cmp	r3, r1
 800014e:	d30d      	bcc.n	800016c <__udivsi3+0x3c>
 8000150:	22ff      	movs	r2, #255	; 0xff
 8000152:	0209      	lsls	r1, r1, #8
 8000154:	ba12      	rev	r2, r2
 8000156:	0c03      	lsrs	r3, r0, #16
 8000158:	428b      	cmp	r3, r1
 800015a:	d302      	bcc.n	8000162 <__udivsi3+0x32>
 800015c:	1212      	asrs	r2, r2, #8
 800015e:	0209      	lsls	r1, r1, #8
 8000160:	d065      	beq.n	800022e <__udivsi3+0xfe>
 8000162:	0b03      	lsrs	r3, r0, #12
 8000164:	428b      	cmp	r3, r1
 8000166:	d319      	bcc.n	800019c <__udivsi3+0x6c>
 8000168:	e000      	b.n	800016c <__udivsi3+0x3c>
 800016a:	0a09      	lsrs	r1, r1, #8
 800016c:	0bc3      	lsrs	r3, r0, #15
 800016e:	428b      	cmp	r3, r1
 8000170:	d301      	bcc.n	8000176 <__udivsi3+0x46>
 8000172:	03cb      	lsls	r3, r1, #15
 8000174:	1ac0      	subs	r0, r0, r3
 8000176:	4152      	adcs	r2, r2
 8000178:	0b83      	lsrs	r3, r0, #14
 800017a:	428b      	cmp	r3, r1
 800017c:	d301      	bcc.n	8000182 <__udivsi3+0x52>
 800017e:	038b      	lsls	r3, r1, #14
 8000180:	1ac0      	subs	r0, r0, r3
 8000182:	4152      	adcs	r2, r2
 8000184:	0b43      	lsrs	r3, r0, #13
 8000186:	428b      	cmp	r3, r1
 8000188:	d301      	bcc.n	800018e <__udivsi3+0x5e>
 800018a:	034b      	lsls	r3, r1, #13
 800018c:	1ac0      	subs	r0, r0, r3
 800018e:	4152      	adcs	r2, r2
 8000190:	0b03      	lsrs	r3, r0, #12
 8000192:	428b      	cmp	r3, r1
 8000194:	d301      	bcc.n	800019a <__udivsi3+0x6a>
 8000196:	030b      	lsls	r3, r1, #12
 8000198:	1ac0      	subs	r0, r0, r3
 800019a:	4152      	adcs	r2, r2
 800019c:	0ac3      	lsrs	r3, r0, #11
 800019e:	428b      	cmp	r3, r1
 80001a0:	d301      	bcc.n	80001a6 <__udivsi3+0x76>
 80001a2:	02cb      	lsls	r3, r1, #11
 80001a4:	1ac0      	subs	r0, r0, r3
 80001a6:	4152      	adcs	r2, r2
 80001a8:	0a83      	lsrs	r3, r0, #10
 80001aa:	428b      	cmp	r3, r1
 80001ac:	d301      	bcc.n	80001b2 <__udivsi3+0x82>
 80001ae:	028b      	lsls	r3, r1, #10
 80001b0:	1ac0      	subs	r0, r0, r3
 80001b2:	4152      	adcs	r2, r2
 80001b4:	0a43      	lsrs	r3, r0, #9
 80001b6:	428b      	cmp	r3, r1
 80001b8:	d301      	bcc.n	80001be <__udivsi3+0x8e>
 80001ba:	024b      	lsls	r3, r1, #9
 80001bc:	1ac0      	subs	r0, r0, r3
 80001be:	4152      	adcs	r2, r2
 80001c0:	0a03      	lsrs	r3, r0, #8
 80001c2:	428b      	cmp	r3, r1
 80001c4:	d301      	bcc.n	80001ca <__udivsi3+0x9a>
 80001c6:	020b      	lsls	r3, r1, #8
 80001c8:	1ac0      	subs	r0, r0, r3
 80001ca:	4152      	adcs	r2, r2
 80001cc:	d2cd      	bcs.n	800016a <__udivsi3+0x3a>
 80001ce:	09c3      	lsrs	r3, r0, #7
 80001d0:	428b      	cmp	r3, r1
 80001d2:	d301      	bcc.n	80001d8 <__udivsi3+0xa8>
 80001d4:	01cb      	lsls	r3, r1, #7
 80001d6:	1ac0      	subs	r0, r0, r3
 80001d8:	4152      	adcs	r2, r2
 80001da:	0983      	lsrs	r3, r0, #6
 80001dc:	428b      	cmp	r3, r1
 80001de:	d301      	bcc.n	80001e4 <__udivsi3+0xb4>
 80001e0:	018b      	lsls	r3, r1, #6
 80001e2:	1ac0      	subs	r0, r0, r3
 80001e4:	4152      	adcs	r2, r2
 80001e6:	0943      	lsrs	r3, r0, #5
 80001e8:	428b      	cmp	r3, r1
 80001ea:	d301      	bcc.n	80001f0 <__udivsi3+0xc0>
 80001ec:	014b      	lsls	r3, r1, #5
 80001ee:	1ac0      	subs	r0, r0, r3
 80001f0:	4152      	adcs	r2, r2
 80001f2:	0903      	lsrs	r3, r0, #4
 80001f4:	428b      	cmp	r3, r1
 80001f6:	d301      	bcc.n	80001fc <__udivsi3+0xcc>
 80001f8:	010b      	lsls	r3, r1, #4
 80001fa:	1ac0      	subs	r0, r0, r3
 80001fc:	4152      	adcs	r2, r2
 80001fe:	08c3      	lsrs	r3, r0, #3
 8000200:	428b      	cmp	r3, r1
 8000202:	d301      	bcc.n	8000208 <__udivsi3+0xd8>
 8000204:	00cb      	lsls	r3, r1, #3
 8000206:	1ac0      	subs	r0, r0, r3
 8000208:	4152      	adcs	r2, r2
 800020a:	0883      	lsrs	r3, r0, #2
 800020c:	428b      	cmp	r3, r1
 800020e:	d301      	bcc.n	8000214 <__udivsi3+0xe4>
 8000210:	008b      	lsls	r3, r1, #2
 8000212:	1ac0      	subs	r0, r0, r3
 8000214:	4152      	adcs	r2, r2
 8000216:	0843      	lsrs	r3, r0, #1
 8000218:	428b      	cmp	r3, r1
 800021a:	d301      	bcc.n	8000220 <__udivsi3+0xf0>
 800021c:	004b      	lsls	r3, r1, #1
 800021e:	1ac0      	subs	r0, r0, r3
 8000220:	4152      	adcs	r2, r2
 8000222:	1a41      	subs	r1, r0, r1
 8000224:	d200      	bcs.n	8000228 <__udivsi3+0xf8>
 8000226:	4601      	mov	r1, r0
 8000228:	4152      	adcs	r2, r2
 800022a:	4610      	mov	r0, r2
 800022c:	4770      	bx	lr
 800022e:	e7ff      	b.n	8000230 <__udivsi3+0x100>
 8000230:	b501      	push	{r0, lr}
 8000232:	2000      	movs	r0, #0
 8000234:	f000 f806 	bl	8000244 <__aeabi_idiv0>
 8000238:	bd02      	pop	{r1, pc}
 800023a:	46c0      	nop			; (mov r8, r8)

0800023c <__aeabi_uidivmod>:
 800023c:	2900      	cmp	r1, #0
 800023e:	d0f7      	beq.n	8000230 <__udivsi3+0x100>
 8000240:	e776      	b.n	8000130 <__udivsi3>
 8000242:	4770      	bx	lr

08000244 <__aeabi_idiv0>:
 8000244:	4770      	bx	lr
 8000246:	46c0      	nop			; (mov r8, r8)

08000248 <SystemClock_Config>:
  *         @arg @ref LL_FLASH_LATENCY_1
  * @retval None
  */
__STATIC_INLINE void LL_FLASH_SetLatency(uint32_t Latency)
{
  MODIFY_REG(FLASH->ACR, FLASH_ACR_LATENCY, Latency);
 8000248:	2301      	movs	r3, #1
 800024a:	4a25      	ldr	r2, [pc, #148]	; (80002e0 <SystemClock_Config+0x98>)
/**
  * @brief System Clock Configuration
  * @retval None
  */
void SystemClock_Config(void)
{
 800024c:	b510      	push	{r4, lr}
 800024e:	6811      	ldr	r1, [r2, #0]
 8000250:	4399      	bics	r1, r3
 8000252:	4319      	orrs	r1, r3
 8000254:	6011      	str	r1, [r2, #0]
  *         @arg @ref LL_FLASH_LATENCY_0
  *         @arg @ref LL_FLASH_LATENCY_1
  */
__STATIC_INLINE uint32_t LL_FLASH_GetLatency(void)
{
  return (uint32_t)(READ_BIT(FLASH->ACR, FLASH_ACR_LATENCY));
 8000256:	6811      	ldr	r1, [r2, #0]
  LL_FLASH_SetLatency(LL_FLASH_LATENCY_1);
  while(LL_FLASH_GetLatency() != LL_FLASH_LATENCY_1)
 8000258:	4219      	tst	r1, r3
 800025a:	d0fc      	beq.n	8000256 <SystemClock_Config+0xe>
  * @rmtoll CR2          HSI48ON       LL_RCC_HSI48_Enable
  * @retval None
  */
__STATIC_INLINE void LL_RCC_HSI48_Enable(void)
{
  SET_BIT(RCC->CR2, RCC_CR2_HSI48ON);
 800025c:	2380      	movs	r3, #128	; 0x80
 800025e:	4c21      	ldr	r4, [pc, #132]	; (80002e4 <SystemClock_Config+0x9c>)
 8000260:	025b      	lsls	r3, r3, #9
 8000262:	6b62      	ldr	r2, [r4, #52]	; 0x34
 8000264:	4313      	orrs	r3, r2
 8000266:	6363      	str	r3, [r4, #52]	; 0x34
  * @rmtoll CR2          HSI48RDY      LL_RCC_HSI48_IsReady
  * @retval State of bit (1 or 0).
  */
__STATIC_INLINE uint32_t LL_RCC_HSI48_IsReady(void)
{
  return (READ_BIT(RCC->CR2, RCC_CR2_HSI48RDY) == (RCC_CR2_HSI48RDY));
 8000268:	2380      	movs	r3, #128	; 0x80
 800026a:	029b      	lsls	r3, r3, #10
 800026c:	6b62      	ldr	r2, [r4, #52]	; 0x34
  {
  }
  LL_RCC_HSI48_Enable();

   /* Wait till HSI48 is ready */
  while(LL_RCC_HSI48_IsReady() != 1)
 800026e:	421a      	tst	r2, r3
 8000270:	d0fc      	beq.n	800026c <SystemClock_Config+0x24>
  *         @arg @ref LL_RCC_PREDIV_DIV_16
  * @retval None
  */
__STATIC_INLINE void LL_RCC_PLL_ConfigDomain_SYS(uint32_t Source, uint32_t PLLMul, uint32_t PLLDiv)
{
  MODIFY_REG(RCC->CFGR, RCC_CFGR_PLLSRC | RCC_CFGR_PLLMUL, Source | PLLMul);
 8000272:	6863      	ldr	r3, [r4, #4]
 8000274:	4a1c      	ldr	r2, [pc, #112]	; (80002e8 <SystemClock_Config+0xa0>)
 8000276:	401a      	ands	r2, r3
 8000278:	23c0      	movs	r3, #192	; 0xc0
 800027a:	025b      	lsls	r3, r3, #9
 800027c:	4313      	orrs	r3, r2
  MODIFY_REG(RCC->CFGR2, RCC_CFGR2_PREDIV, PLLDiv);
 800027e:	220f      	movs	r2, #15
  MODIFY_REG(RCC->CFGR, RCC_CFGR_PLLSRC | RCC_CFGR_PLLMUL, Source | PLLMul);
 8000280:	6063      	str	r3, [r4, #4]
  MODIFY_REG(RCC->CFGR2, RCC_CFGR2_PREDIV, PLLDiv);
 8000282:	6ae3      	ldr	r3, [r4, #44]	; 0x2c
 8000284:	4393      	bics	r3, r2
 8000286:	001a      	movs	r2, r3
 8000288:	2301      	movs	r3, #1
 800028a:	4313      	orrs	r3, r2
 800028c:	62e3      	str	r3, [r4, #44]	; 0x2c
  SET_BIT(RCC->CR, RCC_CR_PLLON);
 800028e:	2380      	movs	r3, #128	; 0x80
 8000290:	6822      	ldr	r2, [r4, #0]
 8000292:	045b      	lsls	r3, r3, #17
 8000294:	4313      	orrs	r3, r2
 8000296:	6023      	str	r3, [r4, #0]
  return (READ_BIT(RCC->CR, RCC_CR_PLLRDY) == (RCC_CR_PLLRDY));
 8000298:	2380      	movs	r3, #128	; 0x80
 800029a:	049b      	lsls	r3, r3, #18
 800029c:	6822      	ldr	r2, [r4, #0]
  }
  LL_RCC_PLL_ConfigDomain_SYS(LL_RCC_PLLSOURCE_HSI48, LL_RCC_PLL_MUL_2, LL_RCC_PREDIV_DIV_2);
  LL_RCC_PLL_Enable();

   /* Wait till PLL is ready */
  while(LL_RCC_PLL_IsReady() != 1)
 800029e:	421a      	tst	r2, r3
 80002a0:	d0fc      	beq.n	800029c <SystemClock_Config+0x54>
  MODIFY_REG(RCC->CFGR, RCC_CFGR_HPRE, Prescaler);
 80002a2:	22f0      	movs	r2, #240	; 0xf0
 80002a4:	6863      	ldr	r3, [r4, #4]
 80002a6:	4393      	bics	r3, r2
 80002a8:	6063      	str	r3, [r4, #4]
  MODIFY_REG(RCC->CFGR, RCC_CFGR_PPRE, Prescaler);
 80002aa:	6863      	ldr	r3, [r4, #4]
 80002ac:	4a0f      	ldr	r2, [pc, #60]	; (80002ec <SystemClock_Config+0xa4>)
 80002ae:	4013      	ands	r3, r2
  MODIFY_REG(RCC->CFGR, RCC_CFGR_SW, Source);
 80002b0:	2203      	movs	r2, #3
  MODIFY_REG(RCC->CFGR, RCC_CFGR_PPRE, Prescaler);
 80002b2:	6063      	str	r3, [r4, #4]
  MODIFY_REG(RCC->CFGR, RCC_CFGR_SW, Source);
 80002b4:	6863      	ldr	r3, [r4, #4]
 80002b6:	4393      	bics	r3, r2
 80002b8:	001a      	movs	r2, r3
 80002ba:	2302      	movs	r3, #2
 80002bc:	4313      	orrs	r3, r2
  return (uint32_t)(READ_BIT(RCC->CFGR, RCC_CFGR_SWS));
 80002be:	220c      	movs	r2, #12
  MODIFY_REG(RCC->CFGR, RCC_CFGR_SW, Source);
 80002c0:	6063      	str	r3, [r4, #4]
  return (uint32_t)(READ_BIT(RCC->CFGR, RCC_CFGR_SWS));
 80002c2:	6863      	ldr	r3, [r4, #4]
 80002c4:	4013      	ands	r3, r2
  LL_RCC_SetAHBPrescaler(LL_RCC_SYSCLK_DIV_1);
  LL_RCC_SetAPB1Prescaler(LL_RCC_APB1_DIV_1);
  LL_RCC_SetSysClkSource(LL_RCC_SYS_CLKSOURCE_PLL);

   /* Wait till System clock is ready */
  while(LL_RCC_GetSysClkSource() != LL_RCC_SYS_CLKSOURCE_STATUS_PLL)
 80002c6:	2b08      	cmp	r3, #8
 80002c8:	d1fb      	bne.n	80002c2 <SystemClock_Config+0x7a>
  {

  }
  LL_SetSystemCoreClock(48000000);
 80002ca:	4809      	ldr	r0, [pc, #36]	; (80002f0 <SystemClock_Config+0xa8>)
 80002cc:	f001 fe22 	bl	8001f14 <LL_SetSystemCoreClock>

   /* Update the time base */
  if (HAL_InitTick (TICK_INT_PRIORITY) != HAL_OK)
 80002d0:	2000      	movs	r0, #0
 80002d2:	f000 fa15 	bl	8000700 <HAL_InitTick>
  MODIFY_REG(RCC->CFGR3, RCC_CFGR3_USBSW, USBxSource);
 80002d6:	2280      	movs	r2, #128	; 0x80
 80002d8:	6b23      	ldr	r3, [r4, #48]	; 0x30
 80002da:	4393      	bics	r3, r2
 80002dc:	6323      	str	r3, [r4, #48]	; 0x30
  {
    Error_Handler();
  }
  LL_RCC_SetUSBClockSource(LL_RCC_USB_CLKSOURCE_HSI48);
}
 80002de:	bd10      	pop	{r4, pc}
 80002e0:	40022000 	.word	0x40022000
 80002e4:	40021000 	.word	0x40021000
 80002e8:	ffc27fff 	.word	0xffc27fff
 80002ec:	fffff8ff 	.word	0xfffff8ff
 80002f0:	02dc6c00 	.word	0x02dc6c00

080002f4 <MX_CAN_Init>:
  * @brief CAN Initialization Function
  * @param None
  * @retval None
  */
void MX_CAN_Init(void)
{
 80002f4:	b570      	push	{r4, r5, r6, lr}
  /* USER CODE END CAN_Init 0 */

  /* USER CODE BEGIN CAN_Init 1 */

  /* USER CODE END CAN_Init 1 */
  hcan.Instance = CAN;
 80002f6:	4b18      	ldr	r3, [pc, #96]	; (8000358 <MX_CAN_Init+0x64>)
 80002f8:	4d18      	ldr	r5, [pc, #96]	; (800035c <MX_CAN_Init+0x68>)
  hcan.Init.Prescaler = 3;
  hcan.Init.Mode = CAN_MODE_NORMAL;
 80002fa:	2400      	movs	r4, #0
  hcan.Instance = CAN;
 80002fc:	602b      	str	r3, [r5, #0]
  hcan.Init.Prescaler = 3;
 80002fe:	2303      	movs	r3, #3
 8000300:	606b      	str	r3, [r5, #4]
  hcan.Init.SyncJumpWidth = CAN_SJW_1TQ;
  hcan.Init.TimeSeg1 = CAN_BS1_13TQ;
 8000302:	23c0      	movs	r3, #192	; 0xc0
 8000304:	031b      	lsls	r3, r3, #12
 8000306:	612b      	str	r3, [r5, #16]
  hcan.Init.TimeSeg2 = CAN_BS2_2TQ;
 8000308:	2380      	movs	r3, #128	; 0x80
  }
  /* USER CODE BEGIN CAN_Init 2 */
	/*##-2- Configure the CAN Filter ###########################################*/
	sFilterConfig.FilterBank = 0;
	sFilterConfig.FilterMode = CAN_FILTERMODE_IDMASK;
	sFilterConfig.FilterScale = CAN_FILTERSCALE_32BIT;
 800030a:	2601      	movs	r6, #1
{
 800030c:	b08a      	sub	sp, #40	; 0x28
  hcan.Init.TimeSeg2 = CAN_BS2_2TQ;
 800030e:	035b      	lsls	r3, r3, #13
  if (HAL_CAN_Init(&hcan) != HAL_OK)
 8000310:	0028      	movs	r0, r5
  hcan.Init.TimeSeg2 = CAN_BS2_2TQ;
 8000312:	616b      	str	r3, [r5, #20]
  hcan.Init.Mode = CAN_MODE_NORMAL;
 8000314:	60ac      	str	r4, [r5, #8]
  hcan.Init.SyncJumpWidth = CAN_SJW_1TQ;
 8000316:	60ec      	str	r4, [r5, #12]
  hcan.Init.TimeTriggeredMode = DISABLE;
 8000318:	762c      	strb	r4, [r5, #24]
  hcan.Init.AutoBusOff = DISABLE;
 800031a:	766c      	strb	r4, [r5, #25]
  hcan.Init.AutoWakeUp = DISABLE;
 800031c:	76ac      	strb	r4, [r5, #26]
  hcan.Init.AutoRetransmission = DISABLE;
 800031e:	76ec      	strb	r4, [r5, #27]
  hcan.Init.ReceiveFifoLocked = DISABLE;
 8000320:	772c      	strb	r4, [r5, #28]
  hcan.Init.TransmitFifoPriority = DISABLE;
 8000322:	776c      	strb	r4, [r5, #29]
  if (HAL_CAN_Init(&hcan) != HAL_OK)
 8000324:	f000 fa44 	bl	80007b0 <HAL_CAN_Init>
	sFilterConfig.FilterFIFOAssignment = 0;
	sFilterConfig.FilterActivation = ENABLE;
	//sFilterConfig.SlaveStartFilterBank = 14;
	sFilterConfig.SlaveStartFilterBank = 0;

	if (HAL_CAN_ConfigFilter(&hcan, &sFilterConfig) != HAL_OK) {
 8000328:	4669      	mov	r1, sp
 800032a:	0028      	movs	r0, r5
	sFilterConfig.FilterBank = 0;
 800032c:	9405      	str	r4, [sp, #20]
	sFilterConfig.FilterMode = CAN_FILTERMODE_IDMASK;
 800032e:	9406      	str	r4, [sp, #24]
	sFilterConfig.FilterScale = CAN_FILTERSCALE_32BIT;
 8000330:	9607      	str	r6, [sp, #28]
	sFilterConfig.FilterIdHigh = 0x0000 << 5;
 8000332:	9400      	str	r4, [sp, #0]
	sFilterConfig.FilterIdLow = 0x0000;
 8000334:	9401      	str	r4, [sp, #4]
	sFilterConfig.FilterMaskIdHigh = 0x0000 << 5;
 8000336:	9402      	str	r4, [sp, #8]
	sFilterConfig.FilterMaskIdLow = 0x0000;
 8000338:	9403      	str	r4, [sp, #12]
	sFilterConfig.FilterFIFOAssignment = 0;
 800033a:	9404      	str	r4, [sp, #16]
	sFilterConfig.FilterActivation = ENABLE;
 800033c:	9608      	str	r6, [sp, #32]
	sFilterConfig.SlaveStartFilterBank = 0;
 800033e:	9409      	str	r4, [sp, #36]	; 0x24
	if (HAL_CAN_ConfigFilter(&hcan, &sFilterConfig) != HAL_OK) {
 8000340:	f000 fabf 	bl	80008c2 <HAL_CAN_ConfigFilter>
	/*##-5- Configure Transmission process #####################################*/
	TxHeader.StdId = 0x0;
	TxHeader.ExtId = 0x01;
	TxHeader.RTR = CAN_RTR_DATA;
	TxHeader.IDE = CAN_ID_STD;
	TxHeader.DLC = 8;
 8000344:	2208      	movs	r2, #8
	TxHeader.StdId = 0x0;
 8000346:	4b06      	ldr	r3, [pc, #24]	; (8000360 <MX_CAN_Init+0x6c>)
 8000348:	601c      	str	r4, [r3, #0]
	TxHeader.ExtId = 0x01;
 800034a:	605e      	str	r6, [r3, #4]
	TxHeader.RTR = CAN_RTR_DATA;
 800034c:	60dc      	str	r4, [r3, #12]
	TxHeader.IDE = CAN_ID_STD;
 800034e:	609c      	str	r4, [r3, #8]
	TxHeader.DLC = 8;
 8000350:	611a      	str	r2, [r3, #16]
	TxHeader.TransmitGlobalTime = DISABLE;
 8000352:	751c      	strb	r4, [r3, #20]
  /* USER CODE END CAN_Init 2 */

}
 8000354:	b00a      	add	sp, #40	; 0x28
 8000356:	bd70      	pop	{r4, r5, r6, pc}
 8000358:	40006400 	.word	0x40006400
 800035c:	200003e8 	.word	0x200003e8
 8000360:	20000420 	.word	0x20000420

08000364 <MX_GPIO_Init>:
  * @brief GPIO Initialization Function
  * @param None
  * @retval None
  */
void MX_GPIO_Init(void)
{
 8000364:	b5f0      	push	{r4, r5, r6, r7, lr}
 8000366:	b089      	sub	sp, #36	; 0x24
  LL_GPIO_InitTypeDef GPIO_InitStruct = {0};
 8000368:	2210      	movs	r2, #16
 800036a:	2100      	movs	r1, #0
 800036c:	a804      	add	r0, sp, #16
 800036e:	f002 fdd5 	bl	8002f1c <memset>
  * @retval None
*/
__STATIC_INLINE void LL_AHB1_GRP1_EnableClock(uint32_t Periphs)
{
  __IO uint32_t tmpreg;
  SET_BIT(RCC->AHBENR, Periphs);
 8000372:	2080      	movs	r0, #128	; 0x80
 8000374:	4b2c      	ldr	r3, [pc, #176]	; (8000428 <MX_GPIO_Init+0xc4>)
 8000376:	0280      	lsls	r0, r0, #10
 8000378:	6959      	ldr	r1, [r3, #20]
  *         @arg @ref LL_GPIO_PIN_ALL
  * @retval None
  */
__STATIC_INLINE void LL_GPIO_ResetOutputPin(GPIO_TypeDef *GPIOx, uint32_t PinMask)
{
  WRITE_REG(GPIOx->BRR, PinMask);
 800037a:	2590      	movs	r5, #144	; 0x90
 800037c:	4301      	orrs	r1, r0
 800037e:	6159      	str	r1, [r3, #20]
 8000380:	2180      	movs	r1, #128	; 0x80
  /* Delay after an RCC peripheral clock enabling */
  tmpreg = READ_BIT(RCC->AHBENR, Periphs);
 8000382:	695a      	ldr	r2, [r3, #20]
  SET_BIT(RCC->AHBENR, Periphs);
 8000384:	02c9      	lsls	r1, r1, #11
  tmpreg = READ_BIT(RCC->AHBENR, Periphs);
 8000386:	4002      	ands	r2, r0
 8000388:	9201      	str	r2, [sp, #4]
  (void)tmpreg;
 800038a:	9a01      	ldr	r2, [sp, #4]
  SET_BIT(RCC->AHBENR, Periphs);
 800038c:	695a      	ldr	r2, [r3, #20]
 800038e:	2020      	movs	r0, #32
 8000390:	430a      	orrs	r2, r1
 8000392:	615a      	str	r2, [r3, #20]
 8000394:	2208      	movs	r2, #8
  tmpreg = READ_BIT(RCC->AHBENR, Periphs);
 8000396:	695b      	ldr	r3, [r3, #20]
 8000398:	0014      	movs	r4, r2
 800039a:	400b      	ands	r3, r1
 800039c:	9300      	str	r3, [sp, #0]
  (void)tmpreg;
 800039e:	9b00      	ldr	r3, [sp, #0]
 80003a0:	2110      	movs	r1, #16
 80003a2:	2302      	movs	r3, #2
  /**/
  LL_GPIO_ResetOutputPin(STATUS_LED_GPIO_Port, STATUS_LED_Pin);

  /**/
  GPIO_InitStruct.Pin = VBUS_LED_Pin;
  GPIO_InitStruct.Mode = LL_GPIO_MODE_OUTPUT;
 80003a4:	2601      	movs	r6, #1
 80003a6:	4f21      	ldr	r7, [pc, #132]	; (800042c <MX_GPIO_Init+0xc8>)
 80003a8:	05ed      	lsls	r5, r5, #23
 80003aa:	62ab      	str	r3, [r5, #40]	; 0x28
 80003ac:	62aa      	str	r2, [r5, #40]	; 0x28
 80003ae:	62a9      	str	r1, [r5, #40]	; 0x28
 80003b0:	62a8      	str	r0, [r5, #40]	; 0x28
 80003b2:	62ba      	str	r2, [r7, #40]	; 0x28
  GPIO_InitStruct.Pin = VBUS_LED_Pin;
 80003b4:	9302      	str	r3, [sp, #8]
  GPIO_InitStruct.Speed = LL_GPIO_SPEED_FREQ_LOW;
  GPIO_InitStruct.OutputType = LL_GPIO_OUTPUT_PUSHPULL;
  GPIO_InitStruct.Pull = LL_GPIO_PULL_NO;
  LL_GPIO_Init(VBUS_LED_GPIO_Port, &GPIO_InitStruct);
 80003b6:	ab02      	add	r3, sp, #8
 80003b8:	0019      	movs	r1, r3
 80003ba:	0028      	movs	r0, r5
  GPIO_InitStruct.Mode = LL_GPIO_MODE_OUTPUT;
 80003bc:	9603      	str	r6, [sp, #12]
  LL_GPIO_Init(VBUS_LED_GPIO_Port, &GPIO_InitStruct);
 80003be:	f001 f9bc 	bl	800173a <LL_GPIO_Init>

  /**/
  GPIO_InitStruct.Pin = SEL_Pin;
  GPIO_InitStruct.Mode = LL_GPIO_MODE_OUTPUT;
  GPIO_InitStruct.Speed = LL_GPIO_SPEED_FREQ_HIGH;
 80003c2:	2303      	movs	r3, #3
  GPIO_InitStruct.Pin = SEL_Pin;
 80003c4:	9402      	str	r4, [sp, #8]
  GPIO_InitStruct.OutputType = LL_GPIO_OUTPUT_PUSHPULL;
 80003c6:	2400      	movs	r4, #0
  GPIO_InitStruct.Pull = LL_GPIO_PULL_NO;
  LL_GPIO_Init(SEL_GPIO_Port, &GPIO_InitStruct);
 80003c8:	a902      	add	r1, sp, #8
 80003ca:	0028      	movs	r0, r5
  GPIO_InitStruct.Speed = LL_GPIO_SPEED_FREQ_HIGH;
 80003cc:	9304      	str	r3, [sp, #16]
  GPIO_InitStruct.Mode = LL_GPIO_MODE_OUTPUT;
 80003ce:	9603      	str	r6, [sp, #12]
  GPIO_InitStruct.OutputType = LL_GPIO_OUTPUT_PUSHPULL;
 80003d0:	9405      	str	r4, [sp, #20]
  GPIO_InitStruct.Pull = LL_GPIO_PULL_NO;
 80003d2:	9406      	str	r4, [sp, #24]
  LL_GPIO_Init(SEL_GPIO_Port, &GPIO_InitStruct);
 80003d4:	f001 f9b1 	bl	800173a <LL_GPIO_Init>

  /**/
  GPIO_InitStruct.Pin = VBUS_EN20_Pin;
 80003d8:	2110      	movs	r1, #16
  GPIO_InitStruct.Mode = LL_GPIO_MODE_OUTPUT;
  GPIO_InitStruct.Speed = LL_GPIO_SPEED_FREQ_LOW;
  GPIO_InitStruct.OutputType = LL_GPIO_OUTPUT_PUSHPULL;
  GPIO_InitStruct.Pull = LL_GPIO_PULL_NO;
  LL_GPIO_Init(VBUS_EN20_GPIO_Port, &GPIO_InitStruct);
 80003da:	0028      	movs	r0, r5
  GPIO_InitStruct.Pin = VBUS_EN20_Pin;
 80003dc:	9102      	str	r1, [sp, #8]
  LL_GPIO_Init(VBUS_EN20_GPIO_Port, &GPIO_InitStruct);
 80003de:	a902      	add	r1, sp, #8
  GPIO_InitStruct.Mode = LL_GPIO_MODE_OUTPUT;
 80003e0:	9603      	str	r6, [sp, #12]
  GPIO_InitStruct.Speed = LL_GPIO_SPEED_FREQ_LOW;
 80003e2:	9404      	str	r4, [sp, #16]
  GPIO_InitStruct.OutputType = LL_GPIO_OUTPUT_PUSHPULL;
 80003e4:	9405      	str	r4, [sp, #20]
  GPIO_InitStruct.Pull = LL_GPIO_PULL_NO;
 80003e6:	9406      	str	r4, [sp, #24]
  LL_GPIO_Init(VBUS_EN20_GPIO_Port, &GPIO_InitStruct);
 80003e8:	f001 f9a7 	bl	800173a <LL_GPIO_Init>

  /**/
  GPIO_InitStruct.Pin = VBUS_EN30_Pin;
 80003ec:	2020      	movs	r0, #32
  GPIO_InitStruct.Mode = LL_GPIO_MODE_OUTPUT;
  GPIO_InitStruct.Speed = LL_GPIO_SPEED_FREQ_LOW;
  GPIO_InitStruct.OutputType = LL_GPIO_OUTPUT_PUSHPULL;
  GPIO_InitStruct.Pull = LL_GPIO_PULL_NO;
  LL_GPIO_Init(VBUS_EN30_GPIO_Port, &GPIO_InitStruct);
 80003ee:	a902      	add	r1, sp, #8
  GPIO_InitStruct.Pin = VBUS_EN30_Pin;
 80003f0:	9002      	str	r0, [sp, #8]
  LL_GPIO_Init(VBUS_EN30_GPIO_Port, &GPIO_InitStruct);
 80003f2:	0028      	movs	r0, r5
  GPIO_InitStruct.Mode = LL_GPIO_MODE_OUTPUT;
 80003f4:	9603      	str	r6, [sp, #12]
  GPIO_InitStruct.Speed = LL_GPIO_SPEED_FREQ_LOW;
 80003f6:	9404      	str	r4, [sp, #16]
  GPIO_InitStruct.OutputType = LL_GPIO_OUTPUT_PUSHPULL;
 80003f8:	9405      	str	r4, [sp, #20]
  GPIO_InitStruct.Pull = LL_GPIO_PULL_NO;
 80003fa:	9406      	str	r4, [sp, #24]
  LL_GPIO_Init(VBUS_EN30_GPIO_Port, &GPIO_InitStruct);
 80003fc:	f001 f99d 	bl	800173a <LL_GPIO_Init>

  /**/
  GPIO_InitStruct.Pin = VBUS_DET_Pin;
  GPIO_InitStruct.Mode = LL_GPIO_MODE_INPUT;
  GPIO_InitStruct.Pull = LL_GPIO_PULL_NO;
  LL_GPIO_Init(VBUS_DET_GPIO_Port, &GPIO_InitStruct);
 8000400:	a902      	add	r1, sp, #8
 8000402:	0038      	movs	r0, r7
  GPIO_InitStruct.Pin = VBUS_DET_Pin;
 8000404:	9602      	str	r6, [sp, #8]
  GPIO_InitStruct.Mode = LL_GPIO_MODE_INPUT;
 8000406:	9403      	str	r4, [sp, #12]
  GPIO_InitStruct.Pull = LL_GPIO_PULL_NO;
 8000408:	9406      	str	r4, [sp, #24]
  LL_GPIO_Init(VBUS_DET_GPIO_Port, &GPIO_InitStruct);
 800040a:	f001 f996 	bl	800173a <LL_GPIO_Init>

  /**/
  GPIO_InitStruct.Pin = STATUS_LED_Pin;
 800040e:	2208      	movs	r2, #8
  GPIO_InitStruct.Mode = LL_GPIO_MODE_OUTPUT;
  GPIO_InitStruct.Speed = LL_GPIO_SPEED_FREQ_HIGH;
 8000410:	2303      	movs	r3, #3
  GPIO_InitStruct.OutputType = LL_GPIO_OUTPUT_PUSHPULL;
  GPIO_InitStruct.Pull = LL_GPIO_PULL_NO;
  LL_GPIO_Init(STATUS_LED_GPIO_Port, &GPIO_InitStruct);
 8000412:	a902      	add	r1, sp, #8
 8000414:	0038      	movs	r0, r7
  GPIO_InitStruct.Pin = STATUS_LED_Pin;
 8000416:	9202      	str	r2, [sp, #8]
  GPIO_InitStruct.Mode = LL_GPIO_MODE_OUTPUT;
 8000418:	9603      	str	r6, [sp, #12]
  GPIO_InitStruct.Speed = LL_GPIO_SPEED_FREQ_HIGH;
 800041a:	9304      	str	r3, [sp, #16]
  GPIO_InitStruct.OutputType = LL_GPIO_OUTPUT_PUSHPULL;
 800041c:	9405      	str	r4, [sp, #20]
  GPIO_InitStruct.Pull = LL_GPIO_PULL_NO;
 800041e:	9406      	str	r4, [sp, #24]
  LL_GPIO_Init(STATUS_LED_GPIO_Port, &GPIO_InitStruct);
 8000420:	f001 f98b 	bl	800173a <LL_GPIO_Init>

}
 8000424:	b009      	add	sp, #36	; 0x24
 8000426:	bdf0      	pop	{r4, r5, r6, r7, pc}
 8000428:	40021000 	.word	0x40021000
 800042c:	48000400 	.word	0x48000400

08000430 <main>:
{
 8000430:	b570      	push	{r4, r5, r6, lr}
  HAL_Init();
 8000432:	f000 f989 	bl	8000748 <HAL_Init>
  SystemClock_Config();
 8000436:	f7ff ff07 	bl	8000248 <SystemClock_Config>
  MX_GPIO_Init();
 800043a:	f7ff ff93 	bl	8000364 <MX_GPIO_Init>
  MX_CAN_Init();
 800043e:	f7ff ff59 	bl	80002f4 <MX_CAN_Init>
  MX_USB_DEVICE_Init();
 8000442:	f002 faef 	bl	8002a24 <MX_USB_DEVICE_Init>
	HAL_CAN_Start(&hcan);
 8000446:	4c31      	ldr	r4, [pc, #196]	; (800050c <main+0xdc>)
 8000448:	0020      	movs	r0, r4
 800044a:	f000 faae 	bl	80009aa <HAL_CAN_Start>
	HAL_CAN_ActivateNotification(&hcan, CAN_IT_RX_FIFO0_MSG_PENDING);
 800044e:	2102      	movs	r1, #2
 8000450:	0020      	movs	r0, r4
 8000452:	f000 fb57 	bl	8000b04 <HAL_CAN_ActivateNotification>
	HAL_GPIO_WritePin(SEL_GPIO_Port, SEL_Pin, SET);
 8000456:	2090      	movs	r0, #144	; 0x90
 8000458:	2201      	movs	r2, #1
 800045a:	2108      	movs	r1, #8
 800045c:	05c0      	lsls	r0, r0, #23
 800045e:	f000 fd63 	bl	8000f28 <HAL_GPIO_WritePin>
	HAL_GPIO_WritePin(STATUS_LED_GPIO_Port, STATUS_LED_Pin, SET);
 8000462:	2201      	movs	r2, #1
 8000464:	2108      	movs	r1, #8
 8000466:	482a      	ldr	r0, [pc, #168]	; (8000510 <main+0xe0>)
 8000468:	f000 fd5e 	bl	8000f28 <HAL_GPIO_WritePin>
	HAL_GPIO_WritePin(VBUS_LED_GPIO_Port, VBUS_LED_Pin, SET);
 800046c:	2090      	movs	r0, #144	; 0x90
 800046e:	2201      	movs	r2, #1
 8000470:	2102      	movs	r1, #2
 8000472:	05c0      	lsls	r0, r0, #23
 8000474:	f000 fd58 	bl	8000f28 <HAL_GPIO_WritePin>
	HAL_GPIO_WritePin(VBUS_EN20_GPIO_Port, VBUS_EN20_Pin, SET);
 8000478:	2090      	movs	r0, #144	; 0x90
 800047a:	2201      	movs	r2, #1
 800047c:	2110      	movs	r1, #16
 800047e:	05c0      	lsls	r0, r0, #23
 8000480:	f000 fd52 	bl	8000f28 <HAL_GPIO_WritePin>
	HAL_GPIO_WritePin(VBUS_EN30_GPIO_Port, VBUS_EN30_Pin, RESET);
 8000484:	2090      	movs	r0, #144	; 0x90
 8000486:	2200      	movs	r2, #0
 8000488:	2120      	movs	r1, #32
 800048a:	05c0      	lsls	r0, r0, #23
			HAL_GPIO_WritePin(SEL_GPIO_Port, SEL_Pin, SET);
 800048c:	2490      	movs	r4, #144	; 0x90
	HAL_GPIO_WritePin(VBUS_EN30_GPIO_Port, VBUS_EN30_Pin, RESET);
 800048e:	f000 fd4b 	bl	8000f28 <HAL_GPIO_WritePin>
			HAL_GPIO_WritePin(SEL_GPIO_Port, SEL_Pin, SET);
 8000492:	05e4      	lsls	r4, r4, #23
		switch (xFlag) {
 8000494:	4d1f      	ldr	r5, [pc, #124]	; (8000514 <main+0xe4>)
 8000496:	782b      	ldrb	r3, [r5, #0]
 8000498:	b2db      	uxtb	r3, r3
 800049a:	2b61      	cmp	r3, #97	; 0x61
 800049c:	d016      	beq.n	80004cc <main+0x9c>
 800049e:	2b62      	cmp	r3, #98	; 0x62
 80004a0:	d1f9      	bne.n	8000496 <main+0x66>
			HAL_GPIO_WritePin(SEL_GPIO_Port, SEL_Pin, RESET);
 80004a2:	2200      	movs	r2, #0
 80004a4:	2108      	movs	r1, #8
 80004a6:	0020      	movs	r0, r4
 80004a8:	f000 fd3e 	bl	8000f28 <HAL_GPIO_WritePin>
			HAL_GPIO_WritePin(STATUS_LED_GPIO_Port, STATUS_LED_Pin, RESET);
 80004ac:	2200      	movs	r2, #0
 80004ae:	2108      	movs	r1, #8
 80004b0:	4817      	ldr	r0, [pc, #92]	; (8000510 <main+0xe0>)
 80004b2:	f000 fd39 	bl	8000f28 <HAL_GPIO_WritePin>
			HAL_GPIO_WritePin(VBUS_LED_GPIO_Port, VBUS_LED_Pin, RESET);
 80004b6:	2200      	movs	r2, #0
 80004b8:	2102      	movs	r1, #2
 80004ba:	0020      	movs	r0, r4
 80004bc:	f000 fd34 	bl	8000f28 <HAL_GPIO_WritePin>
			HAL_Delay(10);
 80004c0:	200a      	movs	r0, #10
 80004c2:	f000 f963 	bl	800078c <HAL_Delay>
			HAL_GPIO_WritePin(VBUS_EN20_GPIO_Port, VBUS_EN20_Pin, SET);
 80004c6:	2201      	movs	r2, #1
 80004c8:	2110      	movs	r1, #16
 80004ca:	e018      	b.n	80004fe <main+0xce>
			HAL_GPIO_WritePin(SEL_GPIO_Port, SEL_Pin, SET);
 80004cc:	2201      	movs	r2, #1
 80004ce:	2108      	movs	r1, #8
 80004d0:	0020      	movs	r0, r4
 80004d2:	f000 fd29 	bl	8000f28 <HAL_GPIO_WritePin>
			HAL_GPIO_WritePin(STATUS_LED_GPIO_Port, STATUS_LED_Pin, SET);
 80004d6:	2201      	movs	r2, #1
 80004d8:	2108      	movs	r1, #8
 80004da:	480d      	ldr	r0, [pc, #52]	; (8000510 <main+0xe0>)
 80004dc:	f000 fd24 	bl	8000f28 <HAL_GPIO_WritePin>
			HAL_GPIO_WritePin(VBUS_LED_GPIO_Port, VBUS_LED_Pin, SET);
 80004e0:	2201      	movs	r2, #1
 80004e2:	2102      	movs	r1, #2
 80004e4:	0020      	movs	r0, r4
 80004e6:	f000 fd1f 	bl	8000f28 <HAL_GPIO_WritePin>
			HAL_GPIO_WritePin(VBUS_EN20_GPIO_Port, VBUS_EN20_Pin, SET);
 80004ea:	2201      	movs	r2, #1
 80004ec:	2110      	movs	r1, #16
 80004ee:	0020      	movs	r0, r4
 80004f0:	f000 fd1a 	bl	8000f28 <HAL_GPIO_WritePin>
			HAL_Delay(10);
 80004f4:	200a      	movs	r0, #10
 80004f6:	f000 f949 	bl	800078c <HAL_Delay>
			HAL_GPIO_WritePin(VBUS_EN30_GPIO_Port, VBUS_EN30_Pin, RESET);
 80004fa:	2200      	movs	r2, #0
 80004fc:	2120      	movs	r1, #32
			HAL_GPIO_WritePin(VBUS_EN20_GPIO_Port, VBUS_EN20_Pin, SET);
 80004fe:	0020      	movs	r0, r4
 8000500:	f000 fd12 	bl	8000f28 <HAL_GPIO_WritePin>
			xFlag = 0;
 8000504:	2300      	movs	r3, #0
 8000506:	702b      	strb	r3, [r5, #0]
			break;
 8000508:	e7c4      	b.n	8000494 <main+0x64>
 800050a:	46c0      	nop			; (mov r8, r8)
 800050c:	200003e8 	.word	0x200003e8
 8000510:	48000400 	.word	0x48000400
 8000514:	20000199 	.word	0x20000199

08000518 <HAL_CAN_RxFifo0MsgPendingCallback>:
	HAL_CAN_AddTxMessage(&hcan, &TxHeader, TxData, &TxMailBox);
}

void HAL_CAN_RxFifo0MsgPendingCallback(CAN_HandleTypeDef *hcan) {

	RxHeader.StdId = 0;         //clear
 8000518:	2100      	movs	r1, #0
void HAL_CAN_RxFifo0MsgPendingCallback(CAN_HandleTypeDef *hcan) {
 800051a:	b570      	push	{r4, r5, r6, lr}
	RxHeader.StdId = 0;         //clear
 800051c:	4c15      	ldr	r4, [pc, #84]	; (8000574 <HAL_CAN_RxFifo0MsgPendingCallback+0x5c>)
	HAL_CAN_GetRxMessage(hcan, CAN_RX_FIFO0, &RxHeader, &RxData[0]);
 800051e:	4d16      	ldr	r5, [pc, #88]	; (8000578 <HAL_CAN_RxFifo0MsgPendingCallback+0x60>)
 8000520:	0022      	movs	r2, r4
 8000522:	002b      	movs	r3, r5
	RxHeader.StdId = 0;         //clear
 8000524:	6021      	str	r1, [r4, #0]
	HAL_CAN_GetRxMessage(hcan, CAN_RX_FIFO0, &RxHeader, &RxData[0]);
 8000526:	f000 fa6a 	bl	80009fe <HAL_CAN_GetRxMessage>
	if (RxData[0] == 0x02) {
 800052a:	782b      	ldrb	r3, [r5, #0]
 800052c:	2b02      	cmp	r3, #2
 800052e:	d106      	bne.n	800053e <HAL_CAN_RxFifo0MsgPendingCallback+0x26>
		xFlag = 'a';
 8000530:	2261      	movs	r2, #97	; 0x61
 8000532:	4b12      	ldr	r3, [pc, #72]	; (800057c <HAL_CAN_RxFifo0MsgPendingCallback+0x64>)
		CDC_Transmit_FS((uint8_t*) "USB2 Activated\r\n", 16);
 8000534:	2110      	movs	r1, #16
 8000536:	4812      	ldr	r0, [pc, #72]	; (8000580 <HAL_CAN_RxFifo0MsgPendingCallback+0x68>)
		xFlag = 'a';
 8000538:	701a      	strb	r2, [r3, #0]
		CDC_Transmit_FS((uint8_t*) "USB2 Activated\r\n", 16);
 800053a:	f002 fab7 	bl	8002aac <CDC_Transmit_FS>
		//HAL_GPIO_TogglePin(STATUS_LED_GPIO_Port, STATUS_LED_Pin);
	}
	if (RxData[0] == 0x03) {
 800053e:	782b      	ldrb	r3, [r5, #0]
 8000540:	2b03      	cmp	r3, #3
 8000542:	d106      	bne.n	8000552 <HAL_CAN_RxFifo0MsgPendingCallback+0x3a>
		xFlag = 'b';
 8000544:	2262      	movs	r2, #98	; 0x62
 8000546:	4b0d      	ldr	r3, [pc, #52]	; (800057c <HAL_CAN_RxFifo0MsgPendingCallback+0x64>)
		CDC_Transmit_FS((uint8_t*) "USB3 Activated\r\n", 16);
 8000548:	2110      	movs	r1, #16
 800054a:	480e      	ldr	r0, [pc, #56]	; (8000584 <HAL_CAN_RxFifo0MsgPendingCallback+0x6c>)
		xFlag = 'b';
 800054c:	701a      	strb	r2, [r3, #0]
		CDC_Transmit_FS((uint8_t*) "USB3 Activated\r\n", 16);
 800054e:	f002 faad 	bl	8002aac <CDC_Transmit_FS>
		//HAL_GPIO_TogglePin(STATUS_LED_GPIO_Port, STATUS_LED_Pin);
	}
	//HAL_GPIO_TogglePin(STATUS_LED_GPIO_Port, STATUS_LED_Pin);

	if ((RxHeader.StdId == 0x111)) {
 8000552:	2312      	movs	r3, #18
 8000554:	6822      	ldr	r2, [r4, #0]
 8000556:	33ff      	adds	r3, #255	; 0xff
 8000558:	429a      	cmp	r2, r3
 800055a:	d10a      	bne.n	8000572 <HAL_CAN_RxFifo0MsgPendingCallback+0x5a>
		HAL_GPIO_WritePin(STATUS_LED_GPIO_Port, STATUS_LED_Pin, RESET);
 800055c:	2200      	movs	r2, #0
 800055e:	2108      	movs	r1, #8
 8000560:	4809      	ldr	r0, [pc, #36]	; (8000588 <HAL_CAN_RxFifo0MsgPendingCallback+0x70>)
 8000562:	f000 fce1 	bl	8000f28 <HAL_GPIO_WritePin>
		HAL_GPIO_WritePin(VBUS_LED_GPIO_Port, VBUS_LED_Pin, RESET);
 8000566:	2090      	movs	r0, #144	; 0x90
 8000568:	2200      	movs	r2, #0
 800056a:	2102      	movs	r1, #2
 800056c:	05c0      	lsls	r0, r0, #23
 800056e:	f000 fcdb 	bl	8000f28 <HAL_GPIO_WritePin>
		//HAL_GPIO_TogglePin(STATUS_LED_GPIO_Port, STATUS_LED_Pin);
	}
}
 8000572:	bd70      	pop	{r4, r5, r6, pc}
 8000574:	20000438 	.word	0x20000438
 8000578:	20000418 	.word	0x20000418
 800057c:	20000199 	.word	0x20000199
 8000580:	08002f44 	.word	0x08002f44
 8000584:	08002f55 	.word	0x08002f55
 8000588:	48000400 	.word	0x48000400

0800058c <Error_Handler>:
{
  /* USER CODE BEGIN Error_Handler_Debug */
	/* User can add his own implementation to report the HAL error return state */

  /* USER CODE END Error_Handler_Debug */
}
 800058c:	4770      	bx	lr
	...

08000590 <HAL_MspInit>:
{
  /* USER CODE BEGIN MspInit 0 */

  /* USER CODE END MspInit 0 */

  __HAL_RCC_SYSCFG_CLK_ENABLE();
 8000590:	2001      	movs	r0, #1
 8000592:	4b0a      	ldr	r3, [pc, #40]	; (80005bc <HAL_MspInit+0x2c>)
{
 8000594:	b082      	sub	sp, #8
  __HAL_RCC_SYSCFG_CLK_ENABLE();
 8000596:	6999      	ldr	r1, [r3, #24]
 8000598:	4301      	orrs	r1, r0
 800059a:	6199      	str	r1, [r3, #24]
  __HAL_RCC_PWR_CLK_ENABLE();
 800059c:	2180      	movs	r1, #128	; 0x80
  __HAL_RCC_SYSCFG_CLK_ENABLE();
 800059e:	699a      	ldr	r2, [r3, #24]
  __HAL_RCC_PWR_CLK_ENABLE();
 80005a0:	0549      	lsls	r1, r1, #21
  __HAL_RCC_SYSCFG_CLK_ENABLE();
 80005a2:	4002      	ands	r2, r0
 80005a4:	9200      	str	r2, [sp, #0]
 80005a6:	9a00      	ldr	r2, [sp, #0]
  __HAL_RCC_PWR_CLK_ENABLE();
 80005a8:	69da      	ldr	r2, [r3, #28]
 80005aa:	430a      	orrs	r2, r1
 80005ac:	61da      	str	r2, [r3, #28]
 80005ae:	69db      	ldr	r3, [r3, #28]
 80005b0:	400b      	ands	r3, r1
 80005b2:	9301      	str	r3, [sp, #4]
 80005b4:	9b01      	ldr	r3, [sp, #4]
  /* System interrupt init*/

  /* USER CODE BEGIN MspInit 1 */

  /* USER CODE END MspInit 1 */
}
 80005b6:	b002      	add	sp, #8
 80005b8:	4770      	bx	lr
 80005ba:	46c0      	nop			; (mov r8, r8)
 80005bc:	40021000 	.word	0x40021000

080005c0 <HAL_CAN_MspInit>:
* This function configures the hardware resources used in this example
* @param hcan: CAN handle pointer
* @retval None
*/
void HAL_CAN_MspInit(CAN_HandleTypeDef* hcan)
{
 80005c0:	b510      	push	{r4, lr}
 80005c2:	0004      	movs	r4, r0
 80005c4:	b088      	sub	sp, #32
  GPIO_InitTypeDef GPIO_InitStruct = {0};
 80005c6:	2214      	movs	r2, #20
 80005c8:	2100      	movs	r1, #0
 80005ca:	a803      	add	r0, sp, #12
 80005cc:	f002 fca6 	bl	8002f1c <memset>
  if(hcan->Instance==CAN)
 80005d0:	4b1a      	ldr	r3, [pc, #104]	; (800063c <HAL_CAN_MspInit+0x7c>)
 80005d2:	6822      	ldr	r2, [r4, #0]
 80005d4:	429a      	cmp	r2, r3
 80005d6:	d12e      	bne.n	8000636 <HAL_CAN_MspInit+0x76>
  {
  /* USER CODE BEGIN CAN_MspInit 0 */

  /* USER CODE END CAN_MspInit 0 */
    /* Peripheral clock enable */
    __HAL_RCC_CAN1_CLK_ENABLE();
 80005d8:	2080      	movs	r0, #128	; 0x80

    __HAL_RCC_GPIOB_CLK_ENABLE();
 80005da:	2480      	movs	r4, #128	; 0x80
    __HAL_RCC_CAN1_CLK_ENABLE();
 80005dc:	4b18      	ldr	r3, [pc, #96]	; (8000640 <HAL_CAN_MspInit+0x80>)
 80005de:	0480      	lsls	r0, r0, #18
 80005e0:	69d9      	ldr	r1, [r3, #28]
    __HAL_RCC_GPIOB_CLK_ENABLE();
 80005e2:	02e4      	lsls	r4, r4, #11
    __HAL_RCC_CAN1_CLK_ENABLE();
 80005e4:	4301      	orrs	r1, r0
 80005e6:	61d9      	str	r1, [r3, #28]
 80005e8:	69da      	ldr	r2, [r3, #28]
    GPIO_InitStruct.Pin = GPIO_PIN_8|GPIO_PIN_9;
    GPIO_InitStruct.Mode = GPIO_MODE_AF_PP;
    GPIO_InitStruct.Pull = GPIO_NOPULL;
    GPIO_InitStruct.Speed = GPIO_SPEED_FREQ_HIGH;
    GPIO_InitStruct.Alternate = GPIO_AF4_CAN;
    HAL_GPIO_Init(GPIOB, &GPIO_InitStruct);
 80005ea:	a903      	add	r1, sp, #12
    __HAL_RCC_CAN1_CLK_ENABLE();
 80005ec:	4002      	ands	r2, r0
 80005ee:	9201      	str	r2, [sp, #4]
 80005f0:	9a01      	ldr	r2, [sp, #4]
    __HAL_RCC_GPIOB_CLK_ENABLE();
 80005f2:	695a      	ldr	r2, [r3, #20]
    HAL_GPIO_Init(GPIOB, &GPIO_InitStruct);
 80005f4:	4813      	ldr	r0, [pc, #76]	; (8000644 <HAL_CAN_MspInit+0x84>)
    __HAL_RCC_GPIOB_CLK_ENABLE();
 80005f6:	4322      	orrs	r2, r4
 80005f8:	615a      	str	r2, [r3, #20]
 80005fa:	695b      	ldr	r3, [r3, #20]
 80005fc:	4023      	ands	r3, r4
 80005fe:	9302      	str	r3, [sp, #8]
 8000600:	9b02      	ldr	r3, [sp, #8]
    GPIO_InitStruct.Pin = GPIO_PIN_8|GPIO_PIN_9;
 8000602:	23c0      	movs	r3, #192	; 0xc0
 8000604:	009b      	lsls	r3, r3, #2
 8000606:	9303      	str	r3, [sp, #12]
    GPIO_InitStruct.Mode = GPIO_MODE_AF_PP;
 8000608:	2302      	movs	r3, #2
 800060a:	9304      	str	r3, [sp, #16]
    GPIO_InitStruct.Speed = GPIO_SPEED_FREQ_HIGH;
 800060c:	3301      	adds	r3, #1
 800060e:	9306      	str	r3, [sp, #24]
    GPIO_InitStruct.Alternate = GPIO_AF4_CAN;
 8000610:	3301      	adds	r3, #1
 8000612:	9307      	str	r3, [sp, #28]
    HAL_GPIO_Init(GPIOB, &GPIO_InitStruct);
 8000614:	f000 fbde 	bl	8000dd4 <HAL_GPIO_Init>

    HAL_I2CEx_EnableFastModePlus(SYSCFG_CFGR1_I2C_FMP_PB8);
 8000618:	0020      	movs	r0, r4
 800061a:	f000 fc8b 	bl	8000f34 <HAL_I2CEx_EnableFastModePlus>

    HAL_I2CEx_EnableFastModePlus(SYSCFG_CFGR1_I2C_FMP_PB9);
 800061e:	2080      	movs	r0, #128	; 0x80
 8000620:	0300      	lsls	r0, r0, #12
 8000622:	f000 fc87 	bl	8000f34 <HAL_I2CEx_EnableFastModePlus>

    /* CAN interrupt Init */
    HAL_NVIC_SetPriority(CEC_CAN_IRQn, 0, 0);
 8000626:	2200      	movs	r2, #0
 8000628:	201e      	movs	r0, #30
 800062a:	0011      	movs	r1, r2
 800062c:	f000 fb82 	bl	8000d34 <HAL_NVIC_SetPriority>
    HAL_NVIC_EnableIRQ(CEC_CAN_IRQn);
 8000630:	201e      	movs	r0, #30
 8000632:	f000 fba9 	bl	8000d88 <HAL_NVIC_EnableIRQ>
  /* USER CODE BEGIN CAN_MspInit 1 */

  /* USER CODE END CAN_MspInit 1 */
  }

}
 8000636:	b008      	add	sp, #32
 8000638:	bd10      	pop	{r4, pc}
 800063a:	46c0      	nop			; (mov r8, r8)
 800063c:	40006400 	.word	0x40006400
 8000640:	40021000 	.word	0x40021000
 8000644:	48000400 	.word	0x48000400

08000648 <NMI_Handler>:

  /* USER CODE END NonMaskableInt_IRQn 0 */
  /* USER CODE BEGIN NonMaskableInt_IRQn 1 */

  /* USER CODE END NonMaskableInt_IRQn 1 */
}
 8000648:	4770      	bx	lr

0800064a <HardFault_Handler>:

/**
  * @brief This function handles Hard fault interrupt.
  */
void HardFault_Handler(void)
{
 800064a:	e7fe      	b.n	800064a <HardFault_Handler>

0800064c <SVC_Handler>:
 800064c:	4770      	bx	lr

0800064e <PendSV_Handler>:
 800064e:	4770      	bx	lr

08000650 <SysTick_Handler>:

/**
  * @brief This function handles System tick timer.
  */
void SysTick_Handler(void)
{
 8000650:	b510      	push	{r4, lr}
  /* USER CODE BEGIN SysTick_IRQn 0 */

  /* USER CODE END SysTick_IRQn 0 */
  HAL_IncTick();
 8000652:	f000 f889 	bl	8000768 <HAL_IncTick>
  /* USER CODE BEGIN SysTick_IRQn 1 */

  /* USER CODE END SysTick_IRQn 1 */
}
 8000656:	bd10      	pop	{r4, pc}

08000658 <CEC_CAN_IRQHandler>:

/**
  * @brief This function handles HDMI-CEC and CAN global interrupts / HDMI-CEC wake-up interrupt through EXTI line 27.
  */
void CEC_CAN_IRQHandler(void)
{
 8000658:	b510      	push	{r4, lr}
  /* USER CODE BEGIN CEC_CAN_IRQn 0 */

  /* USER CODE END CEC_CAN_IRQn 0 */
  HAL_CAN_IRQHandler(&hcan);
 800065a:	4802      	ldr	r0, [pc, #8]	; (8000664 <CEC_CAN_IRQHandler+0xc>)
 800065c:	f000 fa70 	bl	8000b40 <HAL_CAN_IRQHandler>
  /* USER CODE BEGIN CEC_CAN_IRQn 1 */

  /* USER CODE END CEC_CAN_IRQn 1 */
}
 8000660:	bd10      	pop	{r4, pc}
 8000662:	46c0      	nop			; (mov r8, r8)
 8000664:	200003e8 	.word	0x200003e8

08000668 <USB_IRQHandler>:

/**
  * @brief This function handles USB global Interrupt / USB wake-up interrupt through EXTI line 18.
  */
void USB_IRQHandler(void)
{
 8000668:	b510      	push	{r4, lr}
  /* USER CODE BEGIN USB_IRQn 0 */

  /* USER CODE END USB_IRQn 0 */
  HAL_PCD_IRQHandler(&hpcd_USB_FS);
 800066a:	4802      	ldr	r0, [pc, #8]	; (8000674 <USB_IRQHandler+0xc>)
 800066c:	f000 fd8a 	bl	8001184 <HAL_PCD_IRQHandler>
  /* USER CODE BEGIN USB_IRQn 1 */

  /* USER CODE END USB_IRQn 1 */
}
 8000670:	bd10      	pop	{r4, pc}
 8000672:	46c0      	nop			; (mov r8, r8)
 8000674:	20000864 	.word	0x20000864

08000678 <SystemInit>:
                         before branch to main program. This call is made inside
                         the "startup_stm32f0xx.s" file.
                         User can setups the default system clock (System clock source, PLL Multiplier
                         and Divider factors, AHB/APBx prescalers and Flash settings).
   */
}
 8000678:	4770      	bx	lr
	...

0800067c <Reset_Handler>:

  .section .text.Reset_Handler
  .weak Reset_Handler
  .type Reset_Handler, %function
Reset_Handler:
  ldr   r0, =_estack
 800067c:	4813      	ldr	r0, [pc, #76]	; (80006cc <LoopForever+0x2>)
  mov   sp, r0          /* set stack pointer */
 800067e:	4685      	mov	sp, r0

/*Check if boot space corresponds to test memory*/
 
    LDR R0,=0x00000004
 8000680:	4813      	ldr	r0, [pc, #76]	; (80006d0 <LoopForever+0x6>)
    LDR R1, [R0]
 8000682:	6801      	ldr	r1, [r0, #0]
    LSRS R1, R1, #24
 8000684:	0e09      	lsrs	r1, r1, #24
    LDR R2,=0x1F
 8000686:	4a13      	ldr	r2, [pc, #76]	; (80006d4 <LoopForever+0xa>)
    CMP R1, R2
 8000688:	4291      	cmp	r1, r2
    BNE ApplicationStart
 800068a:	d105      	bne.n	8000698 <ApplicationStart>

 /*SYSCFG clock enable*/

    LDR R0,=0x40021018
 800068c:	4812      	ldr	r0, [pc, #72]	; (80006d8 <LoopForever+0xe>)
    LDR R1,=0x00000001
 800068e:	4913      	ldr	r1, [pc, #76]	; (80006dc <LoopForever+0x12>)
    STR R1, [R0]
 8000690:	6001      	str	r1, [r0, #0]

/*Set CFGR1 register with flash memory remap at address 0*/
    LDR R0,=0x40010000
 8000692:	4813      	ldr	r0, [pc, #76]	; (80006e0 <LoopForever+0x16>)
    LDR R1,=0x00000000
 8000694:	4913      	ldr	r1, [pc, #76]	; (80006e4 <LoopForever+0x1a>)
    STR R1, [R0]
 8000696:	6001      	str	r1, [r0, #0]

08000698 <ApplicationStart>:

ApplicationStart:
/* Copy the data segment initializers from flash to SRAM */
  ldr r0, =_sdata
 8000698:	4813      	ldr	r0, [pc, #76]	; (80006e8 <LoopForever+0x1e>)
  ldr r1, =_edata
 800069a:	4914      	ldr	r1, [pc, #80]	; (80006ec <LoopForever+0x22>)
  ldr r2, =_sidata
 800069c:	4a14      	ldr	r2, [pc, #80]	; (80006f0 <LoopForever+0x26>)
  movs r3, #0
 800069e:	2300      	movs	r3, #0
  b LoopCopyDataInit
 80006a0:	e002      	b.n	80006a8 <LoopCopyDataInit>

080006a2 <CopyDataInit>:

CopyDataInit:
  ldr r4, [r2, r3]
 80006a2:	58d4      	ldr	r4, [r2, r3]
  str r4, [r0, r3]
 80006a4:	50c4      	str	r4, [r0, r3]
  adds r3, r3, #4
 80006a6:	3304      	adds	r3, #4

080006a8 <LoopCopyDataInit>:

LoopCopyDataInit:
  adds r4, r0, r3
 80006a8:	18c4      	adds	r4, r0, r3
  cmp r4, r1
 80006aa:	428c      	cmp	r4, r1
  bcc CopyDataInit
 80006ac:	d3f9      	bcc.n	80006a2 <CopyDataInit>
  
/* Zero fill the bss segment. */
  ldr r2, =_sbss
 80006ae:	4a11      	ldr	r2, [pc, #68]	; (80006f4 <LoopForever+0x2a>)
  ldr r4, =_ebss
 80006b0:	4c11      	ldr	r4, [pc, #68]	; (80006f8 <LoopForever+0x2e>)
  movs r3, #0
 80006b2:	2300      	movs	r3, #0
  b LoopFillZerobss
 80006b4:	e001      	b.n	80006ba <LoopFillZerobss>

080006b6 <FillZerobss>:

FillZerobss:
  str  r3, [r2]
 80006b6:	6013      	str	r3, [r2, #0]
  adds r2, r2, #4
 80006b8:	3204      	adds	r2, #4

080006ba <LoopFillZerobss>:

LoopFillZerobss:
  cmp r2, r4
 80006ba:	42a2      	cmp	r2, r4
  bcc FillZerobss
 80006bc:	d3fb      	bcc.n	80006b6 <FillZerobss>

/* Call the clock system intitialization function.*/
  bl  SystemInit
 80006be:	f7ff ffdb 	bl	8000678 <SystemInit>
/* Call static constructors */
  bl __libc_init_array
 80006c2:	f002 fc07 	bl	8002ed4 <__libc_init_array>
/* Call the application's entry point.*/
  bl main
 80006c6:	f7ff feb3 	bl	8000430 <main>

080006ca <LoopForever>:

LoopForever:
    b LoopForever
 80006ca:	e7fe      	b.n	80006ca <LoopForever>
  ldr   r0, =_estack
 80006cc:	20001800 	.word	0x20001800
    LDR R0,=0x00000004
 80006d0:	00000004 	.word	0x00000004
    LDR R2,=0x1F
 80006d4:	0000001f 	.word	0x0000001f
    LDR R0,=0x40021018
 80006d8:	40021018 	.word	0x40021018
    LDR R1,=0x00000001
 80006dc:	00000001 	.word	0x00000001
    LDR R0,=0x40010000
 80006e0:	40010000 	.word	0x40010000
    LDR R1,=0x00000000
 80006e4:	00000000 	.word	0x00000000
  ldr r0, =_sdata
 80006e8:	20000000 	.word	0x20000000
  ldr r1, =_edata
 80006ec:	2000017c 	.word	0x2000017c
  ldr r2, =_sidata
 80006f0:	08002fac 	.word	0x08002fac
  ldr r2, =_sbss
 80006f4:	2000017c 	.word	0x2000017c
  ldr r4, =_ebss
 80006f8:	20000ad8 	.word	0x20000ad8

080006fc <ADC1_IRQHandler>:
 * @retval : None
*/
    .section .text.Default_Handler,"ax",%progbits
Default_Handler:
Infinite_Loop:
  b Infinite_Loop
 80006fc:	e7fe      	b.n	80006fc <ADC1_IRQHandler>
	...

08000700 <HAL_InitTick>:
  *       implementation  in user file.
  * @param TickPriority Tick interrupt priority.
  * @retval HAL status
  */
__weak HAL_StatusTypeDef HAL_InitTick(uint32_t TickPriority)
{
 8000700:	b570      	push	{r4, r5, r6, lr}
 8000702:	0005      	movs	r5, r0
  /*Configure the SysTick to have interrupt in 1ms time basis*/
  if (HAL_SYSTICK_Config(SystemCoreClock / (1000U / uwTickFreq)) > 0U)
 8000704:	20fa      	movs	r0, #250	; 0xfa
 8000706:	4b0d      	ldr	r3, [pc, #52]	; (800073c <HAL_InitTick+0x3c>)
 8000708:	0080      	lsls	r0, r0, #2
 800070a:	7819      	ldrb	r1, [r3, #0]
 800070c:	f7ff fd10 	bl	8000130 <__udivsi3>
 8000710:	4b0b      	ldr	r3, [pc, #44]	; (8000740 <HAL_InitTick+0x40>)
 8000712:	0001      	movs	r1, r0
 8000714:	6818      	ldr	r0, [r3, #0]
 8000716:	f7ff fd0b 	bl	8000130 <__udivsi3>
 800071a:	f000 fb41 	bl	8000da0 <HAL_SYSTICK_Config>
 800071e:	0004      	movs	r4, r0
  {
    return HAL_ERROR;
 8000720:	2001      	movs	r0, #1
  if (HAL_SYSTICK_Config(SystemCoreClock / (1000U / uwTickFreq)) > 0U)
 8000722:	2c00      	cmp	r4, #0
 8000724:	d109      	bne.n	800073a <HAL_InitTick+0x3a>
  }

  /* Configure the SysTick IRQ priority */
  if (TickPriority < (1UL << __NVIC_PRIO_BITS))
 8000726:	2d03      	cmp	r5, #3
 8000728:	d807      	bhi.n	800073a <HAL_InitTick+0x3a>
  {
    HAL_NVIC_SetPriority(SysTick_IRQn, TickPriority, 0U);
 800072a:	3802      	subs	r0, #2
 800072c:	0022      	movs	r2, r4
 800072e:	0029      	movs	r1, r5
 8000730:	f000 fb00 	bl	8000d34 <HAL_NVIC_SetPriority>
    uwTickPrio = TickPriority;
 8000734:	0020      	movs	r0, r4
 8000736:	4b03      	ldr	r3, [pc, #12]	; (8000744 <HAL_InitTick+0x44>)
 8000738:	601d      	str	r5, [r3, #0]
    return HAL_ERROR;
  }

   /* Return function status */
  return HAL_OK;
}
 800073a:	bd70      	pop	{r4, r5, r6, pc}
 800073c:	20000004 	.word	0x20000004
 8000740:	20000000 	.word	0x20000000
 8000744:	20000008 	.word	0x20000008

08000748 <HAL_Init>:
  __HAL_FLASH_PREFETCH_BUFFER_ENABLE();
 8000748:	2310      	movs	r3, #16
 800074a:	4a06      	ldr	r2, [pc, #24]	; (8000764 <HAL_Init+0x1c>)
{
 800074c:	b510      	push	{r4, lr}
  __HAL_FLASH_PREFETCH_BUFFER_ENABLE();
 800074e:	6811      	ldr	r1, [r2, #0]
  HAL_InitTick(TICK_INT_PRIORITY);
 8000750:	2000      	movs	r0, #0
  __HAL_FLASH_PREFETCH_BUFFER_ENABLE();
 8000752:	430b      	orrs	r3, r1
 8000754:	6013      	str	r3, [r2, #0]
  HAL_InitTick(TICK_INT_PRIORITY);
 8000756:	f7ff ffd3 	bl	8000700 <HAL_InitTick>
  HAL_MspInit();
 800075a:	f7ff ff19 	bl	8000590 <HAL_MspInit>
}
 800075e:	2000      	movs	r0, #0
 8000760:	bd10      	pop	{r4, pc}
 8000762:	46c0      	nop			; (mov r8, r8)
 8000764:	40022000 	.word	0x40022000

08000768 <HAL_IncTick>:
  *       implementations in user file.
  * @retval None
  */
__weak void HAL_IncTick(void)
{
  uwTick += uwTickFreq;
 8000768:	4a03      	ldr	r2, [pc, #12]	; (8000778 <HAL_IncTick+0x10>)
 800076a:	4b04      	ldr	r3, [pc, #16]	; (800077c <HAL_IncTick+0x14>)
 800076c:	6811      	ldr	r1, [r2, #0]
 800076e:	781b      	ldrb	r3, [r3, #0]
 8000770:	185b      	adds	r3, r3, r1
 8000772:	6013      	str	r3, [r2, #0]
}
 8000774:	4770      	bx	lr
 8000776:	46c0      	nop			; (mov r8, r8)
 8000778:	20000454 	.word	0x20000454
 800077c:	20000004 	.word	0x20000004

08000780 <HAL_GetTick>:
  *       implementations in user file.
  * @retval tick value
  */
__weak uint32_t HAL_GetTick(void)
{
  return uwTick;
 8000780:	4b01      	ldr	r3, [pc, #4]	; (8000788 <HAL_GetTick+0x8>)
 8000782:	6818      	ldr	r0, [r3, #0]
}
 8000784:	4770      	bx	lr
 8000786:	46c0      	nop			; (mov r8, r8)
 8000788:	20000454 	.word	0x20000454

0800078c <HAL_Delay>:
  *       implementations in user file.
  * @param Delay specifies the delay time length, in milliseconds.
  * @retval None
  */
__weak void HAL_Delay(uint32_t Delay)
{
 800078c:	b570      	push	{r4, r5, r6, lr}
 800078e:	0004      	movs	r4, r0
  uint32_t tickstart = HAL_GetTick();
 8000790:	f7ff fff6 	bl	8000780 <HAL_GetTick>
 8000794:	0005      	movs	r5, r0
  uint32_t wait = Delay;
  
  /* Add a freq to guarantee minimum wait */
  if (wait < HAL_MAX_DELAY)
 8000796:	1c63      	adds	r3, r4, #1
 8000798:	d002      	beq.n	80007a0 <HAL_Delay+0x14>
  {
    wait += (uint32_t)(uwTickFreq);
 800079a:	4b04      	ldr	r3, [pc, #16]	; (80007ac <HAL_Delay+0x20>)
 800079c:	781b      	ldrb	r3, [r3, #0]
 800079e:	18e4      	adds	r4, r4, r3
  }
  
  while((HAL_GetTick() - tickstart) < wait)
 80007a0:	f7ff ffee 	bl	8000780 <HAL_GetTick>
 80007a4:	1b40      	subs	r0, r0, r5
 80007a6:	42a0      	cmp	r0, r4
 80007a8:	d3fa      	bcc.n	80007a0 <HAL_Delay+0x14>
  {
  }
}
 80007aa:	bd70      	pop	{r4, r5, r6, pc}
 80007ac:	20000004 	.word	0x20000004

080007b0 <HAL_CAN_Init>:
  * @param  hcan pointer to a CAN_HandleTypeDef structure that contains
  *         the configuration information for the specified CAN.
  * @retval HAL status
  */
HAL_StatusTypeDef HAL_CAN_Init(CAN_HandleTypeDef *hcan)
{
 80007b0:	b5f8      	push	{r3, r4, r5, r6, r7, lr}
 80007b2:	0004      	movs	r4, r0
  uint32_t tickstart;

  /* Check CAN handle */
  if (hcan == NULL)
  {
    return HAL_ERROR;
 80007b4:	2001      	movs	r0, #1
  if (hcan == NULL)
 80007b6:	2c00      	cmp	r4, #0
 80007b8:	d064      	beq.n	8000884 <HAL_CAN_Init+0xd4>
    /* Init the low level hardware: CLOCK, NVIC */
    hcan->MspInitCallback(hcan);
  }

#else
  if (hcan->State == HAL_CAN_STATE_RESET)
 80007ba:	1825      	adds	r5, r4, r0
 80007bc:	7feb      	ldrb	r3, [r5, #31]
 80007be:	2b00      	cmp	r3, #0
 80007c0:	d102      	bne.n	80007c8 <HAL_CAN_Init+0x18>
  {
    /* Init the low level hardware: CLOCK, NVIC */
    HAL_CAN_MspInit(hcan);
 80007c2:	0020      	movs	r0, r4
 80007c4:	f7ff fefc 	bl	80005c0 <HAL_CAN_MspInit>
  }
#endif /* (USE_HAL_CAN_REGISTER_CALLBACKS) */

  /* Exit from sleep mode */
  CLEAR_BIT(hcan->Instance->MCR, CAN_MCR_SLEEP);
 80007c8:	2602      	movs	r6, #2
 80007ca:	6822      	ldr	r2, [r4, #0]
 80007cc:	6813      	ldr	r3, [r2, #0]
 80007ce:	43b3      	bics	r3, r6
 80007d0:	6013      	str	r3, [r2, #0]

  /* Get tick */
  tickstart = HAL_GetTick();
 80007d2:	f7ff ffd5 	bl	8000780 <HAL_GetTick>
 80007d6:	0007      	movs	r7, r0

  /* Check Sleep mode leave acknowledge */
  while ((hcan->Instance->MSR & CAN_MSR_SLAK) != 0U)
 80007d8:	6823      	ldr	r3, [r4, #0]
 80007da:	685a      	ldr	r2, [r3, #4]
 80007dc:	4232      	tst	r2, r6
 80007de:	d144      	bne.n	800086a <HAL_CAN_Init+0xba>
      return HAL_ERROR;
    }
  }

  /* Request initialisation */
  SET_BIT(hcan->Instance->MCR, CAN_MCR_INRQ);
 80007e0:	2601      	movs	r6, #1
 80007e2:	681a      	ldr	r2, [r3, #0]
 80007e4:	4332      	orrs	r2, r6
 80007e6:	601a      	str	r2, [r3, #0]

  /* Get tick */
  tickstart = HAL_GetTick();
 80007e8:	f7ff ffca 	bl	8000780 <HAL_GetTick>
 80007ec:	0007      	movs	r7, r0

  /* Wait initialisation acknowledge */
  while ((hcan->Instance->MSR & CAN_MSR_INAK) == 0U)
 80007ee:	6823      	ldr	r3, [r4, #0]
 80007f0:	685a      	ldr	r2, [r3, #4]
 80007f2:	4232      	tst	r2, r6
 80007f4:	d047      	beq.n	8000886 <HAL_CAN_Init+0xd6>
      return HAL_ERROR;
    }
  }

  /* Set the time triggered communication mode */
  if (hcan->Init.TimeTriggeredMode == ENABLE)
 80007f6:	7e21      	ldrb	r1, [r4, #24]
 80007f8:	2280      	movs	r2, #128	; 0x80
 80007fa:	2901      	cmp	r1, #1
 80007fc:	d149      	bne.n	8000892 <HAL_CAN_Init+0xe2>
  {
    SET_BIT(hcan->Instance->MCR, CAN_MCR_TTCM);
 80007fe:	6819      	ldr	r1, [r3, #0]
 8000800:	430a      	orrs	r2, r1
 8000802:	601a      	str	r2, [r3, #0]
  {
    CLEAR_BIT(hcan->Instance->MCR, CAN_MCR_TTCM);
  }

  /* Set the automatic bus-off management */
  if (hcan->Init.AutoBusOff == ENABLE)
 8000804:	7e61      	ldrb	r1, [r4, #25]
 8000806:	2240      	movs	r2, #64	; 0x40
 8000808:	2901      	cmp	r1, #1
 800080a:	d146      	bne.n	800089a <HAL_CAN_Init+0xea>
  {
    SET_BIT(hcan->Instance->MCR, CAN_MCR_ABOM);
 800080c:	6819      	ldr	r1, [r3, #0]
 800080e:	430a      	orrs	r2, r1
 8000810:	601a      	str	r2, [r3, #0]
  {
    CLEAR_BIT(hcan->Instance->MCR, CAN_MCR_ABOM);
  }

  /* Set the automatic wake-up mode */
  if (hcan->Init.AutoWakeUp == ENABLE)
 8000812:	7ea1      	ldrb	r1, [r4, #26]
 8000814:	2220      	movs	r2, #32
 8000816:	2901      	cmp	r1, #1
 8000818:	d143      	bne.n	80008a2 <HAL_CAN_Init+0xf2>
  {
    SET_BIT(hcan->Instance->MCR, CAN_MCR_AWUM);
 800081a:	6819      	ldr	r1, [r3, #0]
 800081c:	430a      	orrs	r2, r1
 800081e:	601a      	str	r2, [r3, #0]
  {
    CLEAR_BIT(hcan->Instance->MCR, CAN_MCR_AWUM);
  }

  /* Set the automatic retransmission */
  if (hcan->Init.AutoRetransmission == ENABLE)
 8000820:	7ee1      	ldrb	r1, [r4, #27]
 8000822:	2210      	movs	r2, #16
 8000824:	2901      	cmp	r1, #1
 8000826:	d140      	bne.n	80008aa <HAL_CAN_Init+0xfa>
  {
    CLEAR_BIT(hcan->Instance->MCR, CAN_MCR_NART);
 8000828:	6819      	ldr	r1, [r3, #0]
 800082a:	4391      	bics	r1, r2
 800082c:	6019      	str	r1, [r3, #0]
  {
    SET_BIT(hcan->Instance->MCR, CAN_MCR_NART);
  }

  /* Set the receive FIFO locked mode */
  if (hcan->Init.ReceiveFifoLocked == ENABLE)
 800082e:	7f21      	ldrb	r1, [r4, #28]
 8000830:	2208      	movs	r2, #8
 8000832:	2901      	cmp	r1, #1
 8000834:	d13d      	bne.n	80008b2 <HAL_CAN_Init+0x102>
  {
    SET_BIT(hcan->Instance->MCR, CAN_MCR_RFLM);
 8000836:	6819      	ldr	r1, [r3, #0]
 8000838:	430a      	orrs	r2, r1
 800083a:	601a      	str	r2, [r3, #0]
  {
    CLEAR_BIT(hcan->Instance->MCR, CAN_MCR_RFLM);
  }

  /* Set the transmit FIFO priority */
  if (hcan->Init.TransmitFifoPriority == ENABLE)
 800083c:	7f61      	ldrb	r1, [r4, #29]
 800083e:	2204      	movs	r2, #4
 8000840:	2901      	cmp	r1, #1
 8000842:	d13a      	bne.n	80008ba <HAL_CAN_Init+0x10a>
  {
    SET_BIT(hcan->Instance->MCR, CAN_MCR_TXFP);
 8000844:	6819      	ldr	r1, [r3, #0]
 8000846:	430a      	orrs	r2, r1
 8000848:	601a      	str	r2, [r3, #0]
  {
    CLEAR_BIT(hcan->Instance->MCR, CAN_MCR_TXFP);
  }

  /* Set the bit timing register */
  WRITE_REG(hcan->Instance->BTR, (uint32_t)(hcan->Init.Mode           |
 800084a:	68e1      	ldr	r1, [r4, #12]
 800084c:	68a2      	ldr	r2, [r4, #8]
                                            hcan->Init.TimeSeg1       |
                                            hcan->Init.TimeSeg2       |
                                            (hcan->Init.Prescaler - 1U)));

  /* Initialize the error code */
  hcan->ErrorCode = HAL_CAN_ERROR_NONE;
 800084e:	2000      	movs	r0, #0
  WRITE_REG(hcan->Instance->BTR, (uint32_t)(hcan->Init.Mode           |
 8000850:	430a      	orrs	r2, r1
 8000852:	6921      	ldr	r1, [r4, #16]
 8000854:	430a      	orrs	r2, r1
 8000856:	6961      	ldr	r1, [r4, #20]
 8000858:	430a      	orrs	r2, r1
 800085a:	6861      	ldr	r1, [r4, #4]
 800085c:	3901      	subs	r1, #1
 800085e:	430a      	orrs	r2, r1
 8000860:	61da      	str	r2, [r3, #28]

  /* Initialize the CAN state */
  hcan->State = HAL_CAN_STATE_READY;
 8000862:	2301      	movs	r3, #1
  hcan->ErrorCode = HAL_CAN_ERROR_NONE;
 8000864:	6260      	str	r0, [r4, #36]	; 0x24
  hcan->State = HAL_CAN_STATE_READY;
 8000866:	77eb      	strb	r3, [r5, #31]

  /* Return function status */
  return HAL_OK;
 8000868:	e00c      	b.n	8000884 <HAL_CAN_Init+0xd4>
    if ((HAL_GetTick() - tickstart) > CAN_TIMEOUT_VALUE)
 800086a:	f7ff ff89 	bl	8000780 <HAL_GetTick>
 800086e:	1bc0      	subs	r0, r0, r7
 8000870:	280a      	cmp	r0, #10
 8000872:	d9b1      	bls.n	80007d8 <HAL_CAN_Init+0x28>
      hcan->ErrorCode |= HAL_CAN_ERROR_TIMEOUT;
 8000874:	2380      	movs	r3, #128	; 0x80
 8000876:	6a62      	ldr	r2, [r4, #36]	; 0x24
 8000878:	029b      	lsls	r3, r3, #10
 800087a:	4313      	orrs	r3, r2
 800087c:	6263      	str	r3, [r4, #36]	; 0x24
      hcan->State = HAL_CAN_STATE_ERROR;
 800087e:	2305      	movs	r3, #5
      return HAL_ERROR;
 8000880:	2001      	movs	r0, #1
      hcan->State = HAL_CAN_STATE_ERROR;
 8000882:	77eb      	strb	r3, [r5, #31]
}
 8000884:	bdf8      	pop	{r3, r4, r5, r6, r7, pc}
    if ((HAL_GetTick() - tickstart) > CAN_TIMEOUT_VALUE)
 8000886:	f7ff ff7b 	bl	8000780 <HAL_GetTick>
 800088a:	1bc0      	subs	r0, r0, r7
 800088c:	280a      	cmp	r0, #10
 800088e:	d9ae      	bls.n	80007ee <HAL_CAN_Init+0x3e>
 8000890:	e7f0      	b.n	8000874 <HAL_CAN_Init+0xc4>
    CLEAR_BIT(hcan->Instance->MCR, CAN_MCR_TTCM);
 8000892:	6819      	ldr	r1, [r3, #0]
 8000894:	4391      	bics	r1, r2
 8000896:	6019      	str	r1, [r3, #0]
 8000898:	e7b4      	b.n	8000804 <HAL_CAN_Init+0x54>
    CLEAR_BIT(hcan->Instance->MCR, CAN_MCR_ABOM);
 800089a:	6819      	ldr	r1, [r3, #0]
 800089c:	4391      	bics	r1, r2
 800089e:	6019      	str	r1, [r3, #0]
 80008a0:	e7b7      	b.n	8000812 <HAL_CAN_Init+0x62>
    CLEAR_BIT(hcan->Instance->MCR, CAN_MCR_AWUM);
 80008a2:	6819      	ldr	r1, [r3, #0]
 80008a4:	4391      	bics	r1, r2
 80008a6:	6019      	str	r1, [r3, #0]
 80008a8:	e7ba      	b.n	8000820 <HAL_CAN_Init+0x70>
    SET_BIT(hcan->Instance->MCR, CAN_MCR_NART);
 80008aa:	6819      	ldr	r1, [r3, #0]
 80008ac:	430a      	orrs	r2, r1
 80008ae:	601a      	str	r2, [r3, #0]
 80008b0:	e7bd      	b.n	800082e <HAL_CAN_Init+0x7e>
    CLEAR_BIT(hcan->Instance->MCR, CAN_MCR_RFLM);
 80008b2:	6819      	ldr	r1, [r3, #0]
 80008b4:	4391      	bics	r1, r2
 80008b6:	6019      	str	r1, [r3, #0]
 80008b8:	e7c0      	b.n	800083c <HAL_CAN_Init+0x8c>
    CLEAR_BIT(hcan->Instance->MCR, CAN_MCR_TXFP);
 80008ba:	6819      	ldr	r1, [r3, #0]
 80008bc:	4391      	bics	r1, r2
 80008be:	6019      	str	r1, [r3, #0]
 80008c0:	e7c3      	b.n	800084a <HAL_CAN_Init+0x9a>

080008c2 <HAL_CAN_ConfigFilter>:
  * @param  sFilterConfig pointer to a CAN_FilterTypeDef structure that
  *         contains the filter configuration information.
  * @retval None
  */
HAL_StatusTypeDef HAL_CAN_ConfigFilter(CAN_HandleTypeDef *hcan, CAN_FilterTypeDef *sFilterConfig)
{
 80008c2:	b570      	push	{r4, r5, r6, lr}
  uint32_t filternbrbitpos;
  CAN_TypeDef *can_ip = hcan->Instance;
  HAL_CAN_StateTypeDef state = hcan->State;
 80008c4:	1c43      	adds	r3, r0, #1
 80008c6:	7fdb      	ldrb	r3, [r3, #31]

  if ((state == HAL_CAN_STATE_READY) ||
 80008c8:	3b01      	subs	r3, #1
 80008ca:	2b01      	cmp	r3, #1
 80008cc:	d866      	bhi.n	800099c <HAL_CAN_ConfigFilter+0xda>

    /* Check the parameters */
    assert_param(IS_CAN_FILTER_BANK_SINGLE(sFilterConfig->FilterBank));

    /* Initialisation mode for the filter */
    SET_BIT(can_ip->FMR, CAN_FMR_FINIT);
 80008ce:	2480      	movs	r4, #128	; 0x80
  CAN_TypeDef *can_ip = hcan->Instance;
 80008d0:	6803      	ldr	r3, [r0, #0]
    SET_BIT(can_ip->FMR, CAN_FMR_FINIT);
 80008d2:	2001      	movs	r0, #1
 80008d4:	00a4      	lsls	r4, r4, #2
 80008d6:	591a      	ldr	r2, [r3, r4]

    /* Convert filter number into bit position */
    filternbrbitpos = (uint32_t)1 << (sFilterConfig->FilterBank & 0x1FU);

    /* Filter Deactivation */
    CLEAR_BIT(can_ip->FA1R, filternbrbitpos);
 80008d8:	2687      	movs	r6, #135	; 0x87
    SET_BIT(can_ip->FMR, CAN_FMR_FINIT);
 80008da:	4302      	orrs	r2, r0
 80008dc:	511a      	str	r2, [r3, r4]
    filternbrbitpos = (uint32_t)1 << (sFilterConfig->FilterBank & 0x1FU);
 80008de:	694a      	ldr	r2, [r1, #20]
 80008e0:	3ce2      	subs	r4, #226	; 0xe2
 80008e2:	3cff      	subs	r4, #255	; 0xff
 80008e4:	4014      	ands	r4, r2
 80008e6:	40a0      	lsls	r0, r4
    CLEAR_BIT(can_ip->FA1R, filternbrbitpos);
 80008e8:	43c5      	mvns	r5, r0
 80008ea:	00b6      	lsls	r6, r6, #2
 80008ec:	599c      	ldr	r4, [r3, r6]
 80008ee:	402c      	ands	r4, r5
 80008f0:	519c      	str	r4, [r3, r6]

    /* Filter Scale */
    if (sFilterConfig->FilterScale == CAN_FILTERSCALE_16BIT)
 80008f2:	69cc      	ldr	r4, [r1, #28]
 80008f4:	2c00      	cmp	r4, #0
 80008f6:	d135      	bne.n	8000964 <HAL_CAN_ConfigFilter+0xa2>
    {
      /* 16-bit scale for the filter */
      CLEAR_BIT(can_ip->FS1R, filternbrbitpos);
 80008f8:	3e10      	subs	r6, #16
 80008fa:	599c      	ldr	r4, [r3, r6]
 80008fc:	00d2      	lsls	r2, r2, #3
 80008fe:	402c      	ands	r4, r5
 8000900:	519c      	str	r4, [r3, r6]

      /* First 16-bit identifier and First 16-bit mask */
      /* Or First 16-bit identifier and Second 16-bit identifier */
      can_ip->sFilterRegister[sFilterConfig->FilterBank].FR1 =
        ((0x0000FFFFU & (uint32_t)sFilterConfig->FilterMaskIdLow) << 16U) |
 8000902:	68cc      	ldr	r4, [r1, #12]
        (0x0000FFFFU & (uint32_t)sFilterConfig->FilterIdLow);
 8000904:	684e      	ldr	r6, [r1, #4]
        ((0x0000FFFFU & (uint32_t)sFilterConfig->FilterMaskIdLow) << 16U) |
 8000906:	0424      	lsls	r4, r4, #16
        (0x0000FFFFU & (uint32_t)sFilterConfig->FilterIdLow);
 8000908:	b2b6      	uxth	r6, r6
        ((0x0000FFFFU & (uint32_t)sFilterConfig->FilterMaskIdLow) << 16U) |
 800090a:	4334      	orrs	r4, r6
      can_ip->sFilterRegister[sFilterConfig->FilterBank].FR1 =
 800090c:	2690      	movs	r6, #144	; 0x90
 800090e:	189a      	adds	r2, r3, r2
 8000910:	00b6      	lsls	r6, r6, #2
 8000912:	5194      	str	r4, [r2, r6]

      /* Second 16-bit identifier and Second 16-bit mask */
      /* Or Third 16-bit identifier and Fourth 16-bit identifier */
      can_ip->sFilterRegister[sFilterConfig->FilterBank].FR2 =
        ((0x0000FFFFU & (uint32_t)sFilterConfig->FilterMaskIdHigh) << 16U) |
 8000914:	688c      	ldr	r4, [r1, #8]
        (0x0000FFFFU & (uint32_t)sFilterConfig->FilterIdHigh);
 8000916:	680e      	ldr	r6, [r1, #0]
        ((0x0000FFFFU & (uint32_t)sFilterConfig->FilterMaskIdHigh) << 16U) |
 8000918:	0424      	lsls	r4, r4, #16
        (0x0000FFFFU & (uint32_t)sFilterConfig->FilterIdLow);

      /* 32-bit mask or Second 32-bit identifier */
      can_ip->sFilterRegister[sFilterConfig->FilterBank].FR2 =
        ((0x0000FFFFU & (uint32_t)sFilterConfig->FilterMaskIdHigh) << 16U) |
        (0x0000FFFFU & (uint32_t)sFilterConfig->FilterMaskIdLow);
 800091a:	b2b6      	uxth	r6, r6
        ((0x0000FFFFU & (uint32_t)sFilterConfig->FilterMaskIdHigh) << 16U) |
 800091c:	4334      	orrs	r4, r6
      can_ip->sFilterRegister[sFilterConfig->FilterBank].FR2 =
 800091e:	2691      	movs	r6, #145	; 0x91
 8000920:	00b6      	lsls	r6, r6, #2
 8000922:	5194      	str	r4, [r2, r6]
 8000924:	2281      	movs	r2, #129	; 0x81
    }

    /* Filter Mode */
    if (sFilterConfig->FilterMode == CAN_FILTERMODE_IDMASK)
 8000926:	698c      	ldr	r4, [r1, #24]
 8000928:	0092      	lsls	r2, r2, #2
 800092a:	2c00      	cmp	r4, #0
 800092c:	d12f      	bne.n	800098e <HAL_CAN_ConfigFilter+0xcc>
    {
      /* Id/Mask mode for the filter*/
      CLEAR_BIT(can_ip->FM1R, filternbrbitpos);
 800092e:	589c      	ldr	r4, [r3, r2]
 8000930:	402c      	ands	r4, r5
    }
    else /* CAN_FilterInitStruct->CAN_FilterMode == CAN_FilterMode_IdList */
    {
      /* Identifier list mode for the filter*/
      SET_BIT(can_ip->FM1R, filternbrbitpos);
 8000932:	509c      	str	r4, [r3, r2]
 8000934:	2285      	movs	r2, #133	; 0x85
    }

    /* Filter FIFO assignment */
    if (sFilterConfig->FilterFIFOAssignment == CAN_FILTER_FIFO0)
 8000936:	690c      	ldr	r4, [r1, #16]
 8000938:	0092      	lsls	r2, r2, #2
 800093a:	2c00      	cmp	r4, #0
 800093c:	d12a      	bne.n	8000994 <HAL_CAN_ConfigFilter+0xd2>
    {
      /* FIFO 0 assignation for the filter */
      CLEAR_BIT(can_ip->FFA1R, filternbrbitpos);
 800093e:	589c      	ldr	r4, [r3, r2]
 8000940:	4025      	ands	r5, r4
 8000942:	509d      	str	r5, [r3, r2]
      /* FIFO 1 assignation for the filter */
      SET_BIT(can_ip->FFA1R, filternbrbitpos);
    }

    /* Filter activation */
    if (sFilterConfig->FilterActivation == CAN_FILTER_ENABLE)
 8000944:	6a0a      	ldr	r2, [r1, #32]
 8000946:	2a01      	cmp	r2, #1
 8000948:	d104      	bne.n	8000954 <HAL_CAN_ConfigFilter+0x92>
    {
      SET_BIT(can_ip->FA1R, filternbrbitpos);
 800094a:	2187      	movs	r1, #135	; 0x87
 800094c:	0089      	lsls	r1, r1, #2
 800094e:	585a      	ldr	r2, [r3, r1]
 8000950:	4310      	orrs	r0, r2
 8000952:	5058      	str	r0, [r3, r1]
    }

    /* Leave the initialisation mode for the filter */
    CLEAR_BIT(can_ip->FMR, CAN_FMR_FINIT);
 8000954:	2180      	movs	r1, #128	; 0x80
 8000956:	2001      	movs	r0, #1
 8000958:	0089      	lsls	r1, r1, #2
 800095a:	585a      	ldr	r2, [r3, r1]
 800095c:	4382      	bics	r2, r0

    /* Return function status */
    return HAL_OK;
 800095e:	2000      	movs	r0, #0
    CLEAR_BIT(can_ip->FMR, CAN_FMR_FINIT);
 8000960:	505a      	str	r2, [r3, r1]
    /* Update error code */
    hcan->ErrorCode |= HAL_CAN_ERROR_NOT_INITIALIZED;

    return HAL_ERROR;
  }
}
 8000962:	bd70      	pop	{r4, r5, r6, pc}
    if (sFilterConfig->FilterScale == CAN_FILTERSCALE_32BIT)
 8000964:	2c01      	cmp	r4, #1
 8000966:	d1dd      	bne.n	8000924 <HAL_CAN_ConfigFilter+0x62>
      SET_BIT(can_ip->FS1R, filternbrbitpos);
 8000968:	2683      	movs	r6, #131	; 0x83
 800096a:	00b6      	lsls	r6, r6, #2
 800096c:	599c      	ldr	r4, [r3, r6]
 800096e:	00d2      	lsls	r2, r2, #3
 8000970:	4304      	orrs	r4, r0
 8000972:	519c      	str	r4, [r3, r6]
        ((0x0000FFFFU & (uint32_t)sFilterConfig->FilterIdHigh) << 16U) |
 8000974:	680c      	ldr	r4, [r1, #0]
        (0x0000FFFFU & (uint32_t)sFilterConfig->FilterIdLow);
 8000976:	684e      	ldr	r6, [r1, #4]
        ((0x0000FFFFU & (uint32_t)sFilterConfig->FilterIdHigh) << 16U) |
 8000978:	0424      	lsls	r4, r4, #16
        (0x0000FFFFU & (uint32_t)sFilterConfig->FilterIdLow);
 800097a:	b2b6      	uxth	r6, r6
        ((0x0000FFFFU & (uint32_t)sFilterConfig->FilterIdHigh) << 16U) |
 800097c:	4334      	orrs	r4, r6
      can_ip->sFilterRegister[sFilterConfig->FilterBank].FR1 =
 800097e:	2690      	movs	r6, #144	; 0x90
 8000980:	189a      	adds	r2, r3, r2
 8000982:	00b6      	lsls	r6, r6, #2
 8000984:	5194      	str	r4, [r2, r6]
        ((0x0000FFFFU & (uint32_t)sFilterConfig->FilterMaskIdHigh) << 16U) |
 8000986:	688c      	ldr	r4, [r1, #8]
        (0x0000FFFFU & (uint32_t)sFilterConfig->FilterMaskIdLow);
 8000988:	68ce      	ldr	r6, [r1, #12]
        ((0x0000FFFFU & (uint32_t)sFilterConfig->FilterMaskIdHigh) << 16U) |
 800098a:	0424      	lsls	r4, r4, #16
 800098c:	e7c5      	b.n	800091a <HAL_CAN_ConfigFilter+0x58>
      SET_BIT(can_ip->FM1R, filternbrbitpos);
 800098e:	589c      	ldr	r4, [r3, r2]
 8000990:	4304      	orrs	r4, r0
 8000992:	e7ce      	b.n	8000932 <HAL_CAN_ConfigFilter+0x70>
      SET_BIT(can_ip->FFA1R, filternbrbitpos);
 8000994:	589c      	ldr	r4, [r3, r2]
 8000996:	4304      	orrs	r4, r0
 8000998:	509c      	str	r4, [r3, r2]
 800099a:	e7d3      	b.n	8000944 <HAL_CAN_ConfigFilter+0x82>
    hcan->ErrorCode |= HAL_CAN_ERROR_NOT_INITIALIZED;
 800099c:	2380      	movs	r3, #128	; 0x80
 800099e:	6a42      	ldr	r2, [r0, #36]	; 0x24
 80009a0:	02db      	lsls	r3, r3, #11
 80009a2:	4313      	orrs	r3, r2
 80009a4:	6243      	str	r3, [r0, #36]	; 0x24
    return HAL_ERROR;
 80009a6:	2001      	movs	r0, #1
 80009a8:	e7db      	b.n	8000962 <HAL_CAN_ConfigFilter+0xa0>

080009aa <HAL_CAN_Start>:
  * @param  hcan pointer to an CAN_HandleTypeDef structure that contains
  *         the configuration information for the specified CAN.
  * @retval HAL status
  */
HAL_StatusTypeDef HAL_CAN_Start(CAN_HandleTypeDef *hcan)
{
 80009aa:	b5f8      	push	{r3, r4, r5, r6, r7, lr}
  uint32_t tickstart;

  if (hcan->State == HAL_CAN_STATE_READY)
 80009ac:	1c46      	adds	r6, r0, #1
 80009ae:	7ff5      	ldrb	r5, [r6, #31]
{
 80009b0:	0004      	movs	r4, r0
  if (hcan->State == HAL_CAN_STATE_READY)
 80009b2:	b2ed      	uxtb	r5, r5
 80009b4:	2d01      	cmp	r5, #1
 80009b6:	d11c      	bne.n	80009f2 <HAL_CAN_Start+0x48>
  {
    /* Change CAN peripheral state */
    hcan->State = HAL_CAN_STATE_LISTENING;
 80009b8:	2302      	movs	r3, #2

    /* Request leave initialisation */
    CLEAR_BIT(hcan->Instance->MCR, CAN_MCR_INRQ);
 80009ba:	6802      	ldr	r2, [r0, #0]
    hcan->State = HAL_CAN_STATE_LISTENING;
 80009bc:	77f3      	strb	r3, [r6, #31]
    CLEAR_BIT(hcan->Instance->MCR, CAN_MCR_INRQ);
 80009be:	6813      	ldr	r3, [r2, #0]
 80009c0:	43ab      	bics	r3, r5
 80009c2:	6013      	str	r3, [r2, #0]

    /* Get tick */
    tickstart = HAL_GetTick();
 80009c4:	f7ff fedc 	bl	8000780 <HAL_GetTick>
 80009c8:	0007      	movs	r7, r0

    /* Wait the acknowledge */
    while ((hcan->Instance->MSR & CAN_MSR_INAK) != 0U)
 80009ca:	6823      	ldr	r3, [r4, #0]
 80009cc:	6858      	ldr	r0, [r3, #4]
 80009ce:	4028      	ands	r0, r5
 80009d0:	d101      	bne.n	80009d6 <HAL_CAN_Start+0x2c>
        return HAL_ERROR;
      }
    }

    /* Reset the CAN ErrorCode */
    hcan->ErrorCode = HAL_CAN_ERROR_NONE;
 80009d2:	6260      	str	r0, [r4, #36]	; 0x24
    /* Update error code */
    hcan->ErrorCode |= HAL_CAN_ERROR_NOT_READY;

    return HAL_ERROR;
  }
}
 80009d4:	bdf8      	pop	{r3, r4, r5, r6, r7, pc}
      if ((HAL_GetTick() - tickstart) > CAN_TIMEOUT_VALUE)
 80009d6:	f7ff fed3 	bl	8000780 <HAL_GetTick>
 80009da:	1bc0      	subs	r0, r0, r7
 80009dc:	280a      	cmp	r0, #10
 80009de:	d9f4      	bls.n	80009ca <HAL_CAN_Start+0x20>
        hcan->ErrorCode |= HAL_CAN_ERROR_TIMEOUT;
 80009e0:	2380      	movs	r3, #128	; 0x80
 80009e2:	6a62      	ldr	r2, [r4, #36]	; 0x24
 80009e4:	029b      	lsls	r3, r3, #10
 80009e6:	4313      	orrs	r3, r2
 80009e8:	6263      	str	r3, [r4, #36]	; 0x24
        hcan->State = HAL_CAN_STATE_ERROR;
 80009ea:	2305      	movs	r3, #5
 80009ec:	77f3      	strb	r3, [r6, #31]
    return HAL_ERROR;
 80009ee:	2001      	movs	r0, #1
 80009f0:	e7f0      	b.n	80009d4 <HAL_CAN_Start+0x2a>
    hcan->ErrorCode |= HAL_CAN_ERROR_NOT_READY;
 80009f2:	2380      	movs	r3, #128	; 0x80
 80009f4:	6a42      	ldr	r2, [r0, #36]	; 0x24
 80009f6:	031b      	lsls	r3, r3, #12
 80009f8:	4313      	orrs	r3, r2
 80009fa:	6243      	str	r3, [r0, #36]	; 0x24
 80009fc:	e7f7      	b.n	80009ee <HAL_CAN_Start+0x44>

080009fe <HAL_CAN_GetRxMessage>:
  *         of the Rx frame will be stored.
  * @param  aData array where the payload of the Rx frame will be stored.
  * @retval HAL status
  */
HAL_StatusTypeDef HAL_CAN_GetRxMessage(CAN_HandleTypeDef *hcan, uint32_t RxFifo, CAN_RxHeaderTypeDef *pHeader, uint8_t aData[])
{
 80009fe:	b5f7      	push	{r0, r1, r2, r4, r5, r6, r7, lr}
  HAL_CAN_StateTypeDef state = hcan->State;
 8000a00:	1c44      	adds	r4, r0, #1
 8000a02:	7fe4      	ldrb	r4, [r4, #31]

  assert_param(IS_CAN_RX_FIFO(RxFifo));

  if ((state == HAL_CAN_STATE_READY) ||
 8000a04:	3c01      	subs	r4, #1
 8000a06:	2c01      	cmp	r4, #1
 8000a08:	d900      	bls.n	8000a0c <HAL_CAN_GetRxMessage+0xe>
 8000a0a:	e077      	b.n	8000afc <HAL_CAN_GetRxMessage+0xfe>
 8000a0c:	6804      	ldr	r4, [r0, #0]
 8000a0e:	9401      	str	r4, [sp, #4]
  {
    /* Check the Rx FIFO */
    if (RxFifo == CAN_RX_FIFO0) /* Rx element is assigned to Rx FIFO 0 */
    {
      /* Check that the Rx FIFO 0 is not empty */
      if ((hcan->Instance->RF0R & CAN_RF0R_FMP0) == 0U)
 8000a10:	9d01      	ldr	r5, [sp, #4]
 8000a12:	2403      	movs	r4, #3
    if (RxFifo == CAN_RX_FIFO0) /* Rx element is assigned to Rx FIFO 0 */
 8000a14:	2900      	cmp	r1, #0
 8000a16:	d109      	bne.n	8000a2c <HAL_CAN_GetRxMessage+0x2e>
      if ((hcan->Instance->RF0R & CAN_RF0R_FMP0) == 0U)
 8000a18:	68ee      	ldr	r6, [r5, #12]
      }
    }
    else /* Rx element is assigned to Rx FIFO 1 */
    {
      /* Check that the Rx FIFO 1 is not empty */
      if ((hcan->Instance->RF1R & CAN_RF1R_FMP1) == 0U)
 8000a1a:	4226      	tst	r6, r4
 8000a1c:	d108      	bne.n	8000a30 <HAL_CAN_GetRxMessage+0x32>
      {
        /* Update error code */
        hcan->ErrorCode |= HAL_CAN_ERROR_PARAM;
 8000a1e:	2380      	movs	r3, #128	; 0x80
 8000a20:	6a42      	ldr	r2, [r0, #36]	; 0x24
 8000a22:	039b      	lsls	r3, r3, #14
    return HAL_OK;
  }
  else
  {
    /* Update error code */
    hcan->ErrorCode |= HAL_CAN_ERROR_NOT_INITIALIZED;
 8000a24:	4313      	orrs	r3, r2
 8000a26:	6243      	str	r3, [r0, #36]	; 0x24

    return HAL_ERROR;
 8000a28:	2001      	movs	r0, #1
 8000a2a:	e05e      	b.n	8000aea <HAL_CAN_GetRxMessage+0xec>
      if ((hcan->Instance->RF1R & CAN_RF1R_FMP1) == 0U)
 8000a2c:	692e      	ldr	r6, [r5, #16]
 8000a2e:	e7f4      	b.n	8000a1a <HAL_CAN_GetRxMessage+0x1c>
    pHeader->IDE = CAN_RI0R_IDE & hcan->Instance->sFIFOMailBox[RxFifo].RIR;
 8000a30:	26d8      	movs	r6, #216	; 0xd8
 8000a32:	9d01      	ldr	r5, [sp, #4]
 8000a34:	010c      	lsls	r4, r1, #4
 8000a36:	192c      	adds	r4, r5, r4
 8000a38:	2504      	movs	r5, #4
 8000a3a:	0076      	lsls	r6, r6, #1
 8000a3c:	59a7      	ldr	r7, [r4, r6]
 8000a3e:	402f      	ands	r7, r5
 8000a40:	6097      	str	r7, [r2, #8]
    if (pHeader->IDE == CAN_ID_STD)
 8000a42:	d153      	bne.n	8000aec <HAL_CAN_GetRxMessage+0xee>
      pHeader->StdId = (CAN_RI0R_STID & hcan->Instance->sFIFOMailBox[RxFifo].RIR) >> CAN_TI0R_STID_Pos;
 8000a44:	59a7      	ldr	r7, [r4, r6]
 8000a46:	0d7f      	lsrs	r7, r7, #21
 8000a48:	6017      	str	r7, [r2, #0]
    pHeader->RTR = (CAN_RI0R_RTR & hcan->Instance->sFIFOMailBox[RxFifo].RIR);
 8000a4a:	2702      	movs	r7, #2
    pHeader->DLC = (CAN_RDT0R_DLC & hcan->Instance->sFIFOMailBox[RxFifo].RDTR) >> CAN_RDT0R_DLC_Pos;
 8000a4c:	250f      	movs	r5, #15
    pHeader->RTR = (CAN_RI0R_RTR & hcan->Instance->sFIFOMailBox[RxFifo].RIR);
 8000a4e:	59a6      	ldr	r6, [r4, r6]
 8000a50:	403e      	ands	r6, r7
    pHeader->DLC = (CAN_RDT0R_DLC & hcan->Instance->sFIFOMailBox[RxFifo].RDTR) >> CAN_RDT0R_DLC_Pos;
 8000a52:	37b3      	adds	r7, #179	; 0xb3
 8000a54:	37ff      	adds	r7, #255	; 0xff
    pHeader->RTR = (CAN_RI0R_RTR & hcan->Instance->sFIFOMailBox[RxFifo].RIR);
 8000a56:	60d6      	str	r6, [r2, #12]
    pHeader->DLC = (CAN_RDT0R_DLC & hcan->Instance->sFIFOMailBox[RxFifo].RDTR) >> CAN_RDT0R_DLC_Pos;
 8000a58:	59e6      	ldr	r6, [r4, r7]
 8000a5a:	402e      	ands	r6, r5
 8000a5c:	6116      	str	r6, [r2, #16]
    pHeader->FilterMatchIndex = (CAN_RDT0R_FMI & hcan->Instance->sFIFOMailBox[RxFifo].RDTR) >> CAN_RDT0R_FMI_Pos;
 8000a5e:	59e6      	ldr	r6, [r4, r7]
    pHeader->Timestamp = (CAN_RDT0R_TIME & hcan->Instance->sFIFOMailBox[RxFifo].RDTR) >> CAN_RDT0R_TIME_Pos;
 8000a60:	59e4      	ldr	r4, [r4, r7]
    pHeader->FilterMatchIndex = (CAN_RDT0R_FMI & hcan->Instance->sFIFOMailBox[RxFifo].RDTR) >> CAN_RDT0R_FMI_Pos;
 8000a62:	0a36      	lsrs	r6, r6, #8
    pHeader->Timestamp = (CAN_RDT0R_TIME & hcan->Instance->sFIFOMailBox[RxFifo].RDTR) >> CAN_RDT0R_TIME_Pos;
 8000a64:	0c24      	lsrs	r4, r4, #16
 8000a66:	6154      	str	r4, [r2, #20]
    pHeader->FilterMatchIndex = (CAN_RDT0R_FMI & hcan->Instance->sFIFOMailBox[RxFifo].RDTR) >> CAN_RDT0R_FMI_Pos;
 8000a68:	b2f6      	uxtb	r6, r6
    aData[0] = (uint8_t)((CAN_RDL0R_DATA0 & hcan->Instance->sFIFOMailBox[RxFifo].RDLR) >> CAN_RDL0R_DATA0_Pos);
 8000a6a:	9c01      	ldr	r4, [sp, #4]
    pHeader->FilterMatchIndex = (CAN_RDT0R_FMI & hcan->Instance->sFIFOMailBox[RxFifo].RDTR) >> CAN_RDT0R_FMI_Pos;
 8000a6c:	6196      	str	r6, [r2, #24]
    aData[0] = (uint8_t)((CAN_RDL0R_DATA0 & hcan->Instance->sFIFOMailBox[RxFifo].RDLR) >> CAN_RDL0R_DATA0_Pos);
 8000a6e:	010a      	lsls	r2, r1, #4
 8000a70:	18a5      	adds	r5, r4, r2
 8000a72:	35b9      	adds	r5, #185	; 0xb9
 8000a74:	35ff      	adds	r5, #255	; 0xff
 8000a76:	682c      	ldr	r4, [r5, #0]
 8000a78:	701c      	strb	r4, [r3, #0]
    aData[1] = (uint8_t)((CAN_RDL0R_DATA1 & hcan->Instance->sFIFOMailBox[RxFifo].RDLR) >> CAN_RDL0R_DATA1_Pos);
 8000a7a:	6804      	ldr	r4, [r0, #0]
 8000a7c:	18a4      	adds	r4, r4, r2
 8000a7e:	34b9      	adds	r4, #185	; 0xb9
 8000a80:	34ff      	adds	r4, #255	; 0xff
 8000a82:	6824      	ldr	r4, [r4, #0]
 8000a84:	0a24      	lsrs	r4, r4, #8
 8000a86:	705c      	strb	r4, [r3, #1]
    aData[2] = (uint8_t)((CAN_RDL0R_DATA2 & hcan->Instance->sFIFOMailBox[RxFifo].RDLR) >> CAN_RDL0R_DATA2_Pos);
 8000a88:	6804      	ldr	r4, [r0, #0]
 8000a8a:	18a4      	adds	r4, r4, r2
 8000a8c:	34b9      	adds	r4, #185	; 0xb9
 8000a8e:	34ff      	adds	r4, #255	; 0xff
 8000a90:	6824      	ldr	r4, [r4, #0]
 8000a92:	0c24      	lsrs	r4, r4, #16
 8000a94:	709c      	strb	r4, [r3, #2]
    aData[3] = (uint8_t)((CAN_RDL0R_DATA3 & hcan->Instance->sFIFOMailBox[RxFifo].RDLR) >> CAN_RDL0R_DATA3_Pos);
 8000a96:	6804      	ldr	r4, [r0, #0]
 8000a98:	18a4      	adds	r4, r4, r2
 8000a9a:	34b9      	adds	r4, #185	; 0xb9
 8000a9c:	34ff      	adds	r4, #255	; 0xff
 8000a9e:	6824      	ldr	r4, [r4, #0]
 8000aa0:	0e24      	lsrs	r4, r4, #24
 8000aa2:	70dc      	strb	r4, [r3, #3]
    aData[4] = (uint8_t)((CAN_RDH0R_DATA4 & hcan->Instance->sFIFOMailBox[RxFifo].RDHR) >> CAN_RDH0R_DATA4_Pos);
 8000aa4:	6804      	ldr	r4, [r0, #0]
 8000aa6:	18a4      	adds	r4, r4, r2
 8000aa8:	34bd      	adds	r4, #189	; 0xbd
 8000aaa:	34ff      	adds	r4, #255	; 0xff
 8000aac:	6824      	ldr	r4, [r4, #0]
 8000aae:	711c      	strb	r4, [r3, #4]
    aData[5] = (uint8_t)((CAN_RDH0R_DATA5 & hcan->Instance->sFIFOMailBox[RxFifo].RDHR) >> CAN_RDH0R_DATA5_Pos);
 8000ab0:	6804      	ldr	r4, [r0, #0]
 8000ab2:	18a4      	adds	r4, r4, r2
 8000ab4:	34bd      	adds	r4, #189	; 0xbd
 8000ab6:	34ff      	adds	r4, #255	; 0xff
 8000ab8:	6824      	ldr	r4, [r4, #0]
 8000aba:	0a24      	lsrs	r4, r4, #8
 8000abc:	715c      	strb	r4, [r3, #5]
    aData[6] = (uint8_t)((CAN_RDH0R_DATA6 & hcan->Instance->sFIFOMailBox[RxFifo].RDHR) >> CAN_RDH0R_DATA6_Pos);
 8000abe:	6804      	ldr	r4, [r0, #0]
 8000ac0:	18a4      	adds	r4, r4, r2
 8000ac2:	34bd      	adds	r4, #189	; 0xbd
 8000ac4:	34ff      	adds	r4, #255	; 0xff
 8000ac6:	6824      	ldr	r4, [r4, #0]
 8000ac8:	0c24      	lsrs	r4, r4, #16
 8000aca:	719c      	strb	r4, [r3, #6]
    aData[7] = (uint8_t)((CAN_RDH0R_DATA7 & hcan->Instance->sFIFOMailBox[RxFifo].RDHR) >> CAN_RDH0R_DATA7_Pos);
 8000acc:	6804      	ldr	r4, [r0, #0]
 8000ace:	18a2      	adds	r2, r4, r2
 8000ad0:	32bd      	adds	r2, #189	; 0xbd
 8000ad2:	32ff      	adds	r2, #255	; 0xff
 8000ad4:	6812      	ldr	r2, [r2, #0]
 8000ad6:	0e12      	lsrs	r2, r2, #24
 8000ad8:	71da      	strb	r2, [r3, #7]
 8000ada:	6802      	ldr	r2, [r0, #0]
 8000adc:	2320      	movs	r3, #32
    if (RxFifo == CAN_RX_FIFO0) /* Rx element is assigned to Rx FIFO 0 */
 8000ade:	2900      	cmp	r1, #0
 8000ae0:	d108      	bne.n	8000af4 <HAL_CAN_GetRxMessage+0xf6>
      SET_BIT(hcan->Instance->RF0R, CAN_RF0R_RFOM0);
 8000ae2:	68d0      	ldr	r0, [r2, #12]
 8000ae4:	4303      	orrs	r3, r0
 8000ae6:	60d3      	str	r3, [r2, #12]
    return HAL_OK;
 8000ae8:	2000      	movs	r0, #0
  }
}
 8000aea:	bdfe      	pop	{r1, r2, r3, r4, r5, r6, r7, pc}
      pHeader->ExtId = ((CAN_RI0R_EXID | CAN_RI0R_STID) & hcan->Instance->sFIFOMailBox[RxFifo].RIR) >> CAN_RI0R_EXID_Pos;
 8000aec:	59a7      	ldr	r7, [r4, r6]
 8000aee:	08ff      	lsrs	r7, r7, #3
 8000af0:	6057      	str	r7, [r2, #4]
 8000af2:	e7aa      	b.n	8000a4a <HAL_CAN_GetRxMessage+0x4c>
      SET_BIT(hcan->Instance->RF1R, CAN_RF1R_RFOM1);
 8000af4:	6911      	ldr	r1, [r2, #16]
 8000af6:	430b      	orrs	r3, r1
 8000af8:	6113      	str	r3, [r2, #16]
 8000afa:	e7f5      	b.n	8000ae8 <HAL_CAN_GetRxMessage+0xea>
    hcan->ErrorCode |= HAL_CAN_ERROR_NOT_INITIALIZED;
 8000afc:	2380      	movs	r3, #128	; 0x80
 8000afe:	6a42      	ldr	r2, [r0, #36]	; 0x24
 8000b00:	02db      	lsls	r3, r3, #11
 8000b02:	e78f      	b.n	8000a24 <HAL_CAN_GetRxMessage+0x26>

08000b04 <HAL_CAN_ActivateNotification>:
  *         This parameter can be any combination of @arg CAN_Interrupts.
  * @retval HAL status
  */
HAL_StatusTypeDef HAL_CAN_ActivateNotification(CAN_HandleTypeDef *hcan, uint32_t ActiveITs)
{
  HAL_CAN_StateTypeDef state = hcan->State;
 8000b04:	1c43      	adds	r3, r0, #1
 8000b06:	7fdb      	ldrb	r3, [r3, #31]

  /* Check function parameters */
  assert_param(IS_CAN_IT(ActiveITs));

  if ((state == HAL_CAN_STATE_READY) ||
 8000b08:	3b01      	subs	r3, #1
 8000b0a:	2b01      	cmp	r3, #1
 8000b0c:	d805      	bhi.n	8000b1a <HAL_CAN_ActivateNotification+0x16>
      (state == HAL_CAN_STATE_LISTENING))
  {
    /* Enable the selected interrupts */
    __HAL_CAN_ENABLE_IT(hcan, ActiveITs);
 8000b0e:	6802      	ldr	r2, [r0, #0]

    /* Return function status */
    return HAL_OK;
 8000b10:	2000      	movs	r0, #0
    __HAL_CAN_ENABLE_IT(hcan, ActiveITs);
 8000b12:	6953      	ldr	r3, [r2, #20]
 8000b14:	4319      	orrs	r1, r3
 8000b16:	6151      	str	r1, [r2, #20]
    /* Update error code */
    hcan->ErrorCode |= HAL_CAN_ERROR_NOT_INITIALIZED;

    return HAL_ERROR;
  }
}
 8000b18:	4770      	bx	lr
    hcan->ErrorCode |= HAL_CAN_ERROR_NOT_INITIALIZED;
 8000b1a:	2380      	movs	r3, #128	; 0x80
 8000b1c:	6a42      	ldr	r2, [r0, #36]	; 0x24
 8000b1e:	02db      	lsls	r3, r3, #11
 8000b20:	4313      	orrs	r3, r2
 8000b22:	6243      	str	r3, [r0, #36]	; 0x24
    return HAL_ERROR;
 8000b24:	2001      	movs	r0, #1
 8000b26:	e7f7      	b.n	8000b18 <HAL_CAN_ActivateNotification+0x14>

08000b28 <HAL_CAN_TxMailbox0CompleteCallback>:
 8000b28:	4770      	bx	lr

08000b2a <HAL_CAN_TxMailbox1CompleteCallback>:
 8000b2a:	4770      	bx	lr

08000b2c <HAL_CAN_TxMailbox2CompleteCallback>:
 8000b2c:	4770      	bx	lr

08000b2e <HAL_CAN_TxMailbox0AbortCallback>:
 8000b2e:	4770      	bx	lr

08000b30 <HAL_CAN_TxMailbox1AbortCallback>:
 8000b30:	4770      	bx	lr

08000b32 <HAL_CAN_TxMailbox2AbortCallback>:
 8000b32:	4770      	bx	lr

08000b34 <HAL_CAN_RxFifo0FullCallback>:
 8000b34:	4770      	bx	lr

08000b36 <HAL_CAN_RxFifo1MsgPendingCallback>:
 8000b36:	4770      	bx	lr

08000b38 <HAL_CAN_RxFifo1FullCallback>:
 8000b38:	4770      	bx	lr

08000b3a <HAL_CAN_SleepCallback>:
 8000b3a:	4770      	bx	lr

08000b3c <HAL_CAN_WakeUpFromRxMsgCallback>:
 8000b3c:	4770      	bx	lr

08000b3e <HAL_CAN_ErrorCallback>:
 8000b3e:	4770      	bx	lr

08000b40 <HAL_CAN_IRQHandler>:
  * @param  hcan pointer to a CAN_HandleTypeDef structure that contains
  *         the configuration information for the specified CAN.
  * @retval None
  */
void HAL_CAN_IRQHandler(CAN_HandleTypeDef *hcan)
{
 8000b40:	b5f0      	push	{r4, r5, r6, r7, lr}
  uint32_t errorcode = HAL_CAN_ERROR_NONE;
  uint32_t interrupts = READ_REG(hcan->Instance->IER);
 8000b42:	6803      	ldr	r3, [r0, #0]
{
 8000b44:	b085      	sub	sp, #20
  uint32_t interrupts = READ_REG(hcan->Instance->IER);
 8000b46:	695e      	ldr	r6, [r3, #20]
  uint32_t msrflags = READ_REG(hcan->Instance->MSR);
 8000b48:	685a      	ldr	r2, [r3, #4]
  uint32_t tsrflags = READ_REG(hcan->Instance->TSR);
 8000b4a:	689f      	ldr	r7, [r3, #8]
  uint32_t msrflags = READ_REG(hcan->Instance->MSR);
 8000b4c:	9201      	str	r2, [sp, #4]
  uint32_t rf0rflags = READ_REG(hcan->Instance->RF0R);
 8000b4e:	68da      	ldr	r2, [r3, #12]
{
 8000b50:	0005      	movs	r5, r0
  uint32_t rf0rflags = READ_REG(hcan->Instance->RF0R);
 8000b52:	9202      	str	r2, [sp, #8]
  uint32_t rf1rflags = READ_REG(hcan->Instance->RF1R);
 8000b54:	691a      	ldr	r2, [r3, #16]
  uint32_t errorcode = HAL_CAN_ERROR_NONE;
 8000b56:	2400      	movs	r4, #0
  uint32_t rf1rflags = READ_REG(hcan->Instance->RF1R);
 8000b58:	9203      	str	r2, [sp, #12]
  uint32_t esrflags = READ_REG(hcan->Instance->ESR);
 8000b5a:	699a      	ldr	r2, [r3, #24]
 8000b5c:	9200      	str	r2, [sp, #0]

  /* Transmit Mailbox empty interrupt management *****************************/
  if ((interrupts & CAN_IT_TX_MAILBOX_EMPTY) != 0U)
 8000b5e:	2201      	movs	r2, #1
 8000b60:	4216      	tst	r6, r2
 8000b62:	d01f      	beq.n	8000ba4 <HAL_CAN_IRQHandler+0x64>
  {
    /* Transmit Mailbox 0 management *****************************************/
    if ((tsrflags & CAN_TSR_RQCP0) != 0U)
 8000b64:	4217      	tst	r7, r2
 8000b66:	d005      	beq.n	8000b74 <HAL_CAN_IRQHandler+0x34>
    {
      /* Clear the Transmission Complete flag (and TXOK0,ALST0,TERR0 bits) */
      __HAL_CAN_CLEAR_FLAG(hcan, CAN_FLAG_RQCP0);
 8000b68:	609a      	str	r2, [r3, #8]

      if ((tsrflags & CAN_TSR_TXOK0) != 0U)
 8000b6a:	07bb      	lsls	r3, r7, #30
 8000b6c:	d400      	bmi.n	8000b70 <HAL_CAN_IRQHandler+0x30>
 8000b6e:	e0a6      	b.n	8000cbe <HAL_CAN_IRQHandler+0x17e>
#if USE_HAL_CAN_REGISTER_CALLBACKS == 1
        /* Call registered callback*/
        hcan->TxMailbox0CompleteCallback(hcan);
#else
        /* Call weak (surcharged) callback */
        HAL_CAN_TxMailbox0CompleteCallback(hcan);
 8000b70:	f7ff ffda 	bl	8000b28 <HAL_CAN_TxMailbox0CompleteCallback>
        }
      }
    }

    /* Transmit Mailbox 1 management *****************************************/
    if ((tsrflags & CAN_TSR_RQCP1) != 0U)
 8000b74:	2380      	movs	r3, #128	; 0x80
 8000b76:	005b      	lsls	r3, r3, #1
 8000b78:	421f      	tst	r7, r3
 8000b7a:	d007      	beq.n	8000b8c <HAL_CAN_IRQHandler+0x4c>
    {
      /* Clear the Transmission Complete flag (and TXOK1,ALST1,TERR1 bits) */
      __HAL_CAN_CLEAR_FLAG(hcan, CAN_FLAG_RQCP1);
 8000b7c:	682a      	ldr	r2, [r5, #0]
 8000b7e:	6093      	str	r3, [r2, #8]

      if ((tsrflags & CAN_TSR_TXOK1) != 0U)
 8000b80:	05bb      	lsls	r3, r7, #22
 8000b82:	d400      	bmi.n	8000b86 <HAL_CAN_IRQHandler+0x46>
 8000b84:	e0a8      	b.n	8000cd8 <HAL_CAN_IRQHandler+0x198>
#if USE_HAL_CAN_REGISTER_CALLBACKS == 1
        /* Call registered callback*/
        hcan->TxMailbox1CompleteCallback(hcan);
#else
        /* Call weak (surcharged) callback */
        HAL_CAN_TxMailbox1CompleteCallback(hcan);
 8000b86:	0028      	movs	r0, r5
 8000b88:	f7ff ffcf 	bl	8000b2a <HAL_CAN_TxMailbox1CompleteCallback>
        }
      }
    }

    /* Transmit Mailbox 2 management *****************************************/
    if ((tsrflags & CAN_TSR_RQCP2) != 0U)
 8000b8c:	2380      	movs	r3, #128	; 0x80
 8000b8e:	025b      	lsls	r3, r3, #9
 8000b90:	421f      	tst	r7, r3
 8000b92:	d007      	beq.n	8000ba4 <HAL_CAN_IRQHandler+0x64>
    {
      /* Clear the Transmission Complete flag (and TXOK2,ALST2,TERR2 bits) */
      __HAL_CAN_CLEAR_FLAG(hcan, CAN_FLAG_RQCP2);
 8000b94:	682a      	ldr	r2, [r5, #0]
 8000b96:	6093      	str	r3, [r2, #8]

      if ((tsrflags & CAN_TSR_TXOK2) != 0U)
 8000b98:	03ba      	lsls	r2, r7, #14
 8000b9a:	d400      	bmi.n	8000b9e <HAL_CAN_IRQHandler+0x5e>
 8000b9c:	e0ab      	b.n	8000cf6 <HAL_CAN_IRQHandler+0x1b6>
#if USE_HAL_CAN_REGISTER_CALLBACKS == 1
        /* Call registered callback*/
        hcan->TxMailbox2CompleteCallback(hcan);
#else
        /* Call weak (surcharged) callback */
        HAL_CAN_TxMailbox2CompleteCallback(hcan);
 8000b9e:	0028      	movs	r0, r5
 8000ba0:	f7ff ffc4 	bl	8000b2c <HAL_CAN_TxMailbox2CompleteCallback>
      }
    }
  }

  /* Receive FIFO 0 overrun interrupt management *****************************/
  if ((interrupts & CAN_IT_RX_FIFO0_OVERRUN) != 0U)
 8000ba4:	0733      	lsls	r3, r6, #28
 8000ba6:	d508      	bpl.n	8000bba <HAL_CAN_IRQHandler+0x7a>
  {
    if ((rf0rflags & CAN_RF0R_FOVR0) != 0U)
 8000ba8:	2310      	movs	r3, #16
 8000baa:	9a02      	ldr	r2, [sp, #8]
 8000bac:	421a      	tst	r2, r3
 8000bae:	d004      	beq.n	8000bba <HAL_CAN_IRQHandler+0x7a>
    {
      /* Set CAN error code to Rx Fifo 0 overrun error */
      errorcode |= HAL_CAN_ERROR_RX_FOV0;
 8000bb0:	2280      	movs	r2, #128	; 0x80
 8000bb2:	0092      	lsls	r2, r2, #2
 8000bb4:	4314      	orrs	r4, r2

      /* Clear FIFO0 Overrun Flag */
      __HAL_CAN_CLEAR_FLAG(hcan, CAN_FLAG_FOV0);
 8000bb6:	682a      	ldr	r2, [r5, #0]
 8000bb8:	60d3      	str	r3, [r2, #12]
    }
  }

  /* Receive FIFO 0 full interrupt management ********************************/
  if ((interrupts & CAN_IT_RX_FIFO0_FULL) != 0U)
 8000bba:	0773      	lsls	r3, r6, #29
 8000bbc:	d508      	bpl.n	8000bd0 <HAL_CAN_IRQHandler+0x90>
  {
    if ((rf0rflags & CAN_RF0R_FULL0) != 0U)
 8000bbe:	2308      	movs	r3, #8
 8000bc0:	9a02      	ldr	r2, [sp, #8]
 8000bc2:	421a      	tst	r2, r3
 8000bc4:	d004      	beq.n	8000bd0 <HAL_CAN_IRQHandler+0x90>
    {
      /* Clear FIFO 0 full Flag */
      __HAL_CAN_CLEAR_FLAG(hcan, CAN_FLAG_FF0);
 8000bc6:	682a      	ldr	r2, [r5, #0]
#if USE_HAL_CAN_REGISTER_CALLBACKS == 1
      /* Call registered callback*/
      hcan->RxFifo0FullCallback(hcan);
#else
      /* Call weak (surcharged) callback */
      HAL_CAN_RxFifo0FullCallback(hcan);
 8000bc8:	0028      	movs	r0, r5
      __HAL_CAN_CLEAR_FLAG(hcan, CAN_FLAG_FF0);
 8000bca:	60d3      	str	r3, [r2, #12]
      HAL_CAN_RxFifo0FullCallback(hcan);
 8000bcc:	f7ff ffb2 	bl	8000b34 <HAL_CAN_RxFifo0FullCallback>
#endif /* USE_HAL_CAN_REGISTER_CALLBACKS */
    }
  }

  /* Receive FIFO 0 message pending interrupt management *********************/
  if ((interrupts & CAN_IT_RX_FIFO0_MSG_PENDING) != 0U)
 8000bd0:	07b3      	lsls	r3, r6, #30
 8000bd2:	d506      	bpl.n	8000be2 <HAL_CAN_IRQHandler+0xa2>
  {
    /* Check if message is still pending */
    if ((hcan->Instance->RF0R & CAN_RF0R_FMP0) != 0U)
 8000bd4:	682b      	ldr	r3, [r5, #0]
 8000bd6:	68db      	ldr	r3, [r3, #12]
 8000bd8:	079b      	lsls	r3, r3, #30
 8000bda:	d002      	beq.n	8000be2 <HAL_CAN_IRQHandler+0xa2>
#if USE_HAL_CAN_REGISTER_CALLBACKS == 1
      /* Call registered callback*/
      hcan->RxFifo0MsgPendingCallback(hcan);
#else
      /* Call weak (surcharged) callback */
      HAL_CAN_RxFifo0MsgPendingCallback(hcan);
 8000bdc:	0028      	movs	r0, r5
 8000bde:	f7ff fc9b 	bl	8000518 <HAL_CAN_RxFifo0MsgPendingCallback>
#endif /* USE_HAL_CAN_REGISTER_CALLBACKS */
    }
  }

  /* Receive FIFO 1 overrun interrupt management *****************************/
  if ((interrupts & CAN_IT_RX_FIFO1_OVERRUN) != 0U)
 8000be2:	0673      	lsls	r3, r6, #25
 8000be4:	d508      	bpl.n	8000bf8 <HAL_CAN_IRQHandler+0xb8>
  {
    if ((rf1rflags & CAN_RF1R_FOVR1) != 0U)
 8000be6:	2310      	movs	r3, #16
 8000be8:	9a03      	ldr	r2, [sp, #12]
 8000bea:	421a      	tst	r2, r3
 8000bec:	d004      	beq.n	8000bf8 <HAL_CAN_IRQHandler+0xb8>
    {
      /* Set CAN error code to Rx Fifo 1 overrun error */
      errorcode |= HAL_CAN_ERROR_RX_FOV1;
 8000bee:	2280      	movs	r2, #128	; 0x80
 8000bf0:	00d2      	lsls	r2, r2, #3
 8000bf2:	4314      	orrs	r4, r2

      /* Clear FIFO1 Overrun Flag */
      __HAL_CAN_CLEAR_FLAG(hcan, CAN_FLAG_FOV1);
 8000bf4:	682a      	ldr	r2, [r5, #0]
 8000bf6:	6113      	str	r3, [r2, #16]
    }
  }

  /* Receive FIFO 1 full interrupt management ********************************/
  if ((interrupts & CAN_IT_RX_FIFO1_FULL) != 0U)
 8000bf8:	06b3      	lsls	r3, r6, #26
 8000bfa:	d508      	bpl.n	8000c0e <HAL_CAN_IRQHandler+0xce>
  {
    if ((rf1rflags & CAN_RF1R_FULL1) != 0U)
 8000bfc:	2308      	movs	r3, #8
 8000bfe:	9a03      	ldr	r2, [sp, #12]
 8000c00:	421a      	tst	r2, r3
 8000c02:	d004      	beq.n	8000c0e <HAL_CAN_IRQHandler+0xce>
    {
      /* Clear FIFO 1 full Flag */
      __HAL_CAN_CLEAR_FLAG(hcan, CAN_FLAG_FF1);
 8000c04:	682a      	ldr	r2, [r5, #0]
#if USE_HAL_CAN_REGISTER_CALLBACKS == 1
      /* Call registered callback*/
      hcan->RxFifo1FullCallback(hcan);
#else
      /* Call weak (surcharged) callback */
      HAL_CAN_RxFifo1FullCallback(hcan);
 8000c06:	0028      	movs	r0, r5
      __HAL_CAN_CLEAR_FLAG(hcan, CAN_FLAG_FF1);
 8000c08:	6113      	str	r3, [r2, #16]
      HAL_CAN_RxFifo1FullCallback(hcan);
 8000c0a:	f7ff ff95 	bl	8000b38 <HAL_CAN_RxFifo1FullCallback>
#endif /* USE_HAL_CAN_REGISTER_CALLBACKS */
    }
  }

  /* Receive FIFO 1 message pending interrupt management *********************/
  if ((interrupts & CAN_IT_RX_FIFO1_MSG_PENDING) != 0U)
 8000c0e:	06f3      	lsls	r3, r6, #27
 8000c10:	d506      	bpl.n	8000c20 <HAL_CAN_IRQHandler+0xe0>
  {
    /* Check if message is still pending */
    if ((hcan->Instance->RF1R & CAN_RF1R_FMP1) != 0U)
 8000c12:	682b      	ldr	r3, [r5, #0]
 8000c14:	691b      	ldr	r3, [r3, #16]
 8000c16:	079b      	lsls	r3, r3, #30
 8000c18:	d002      	beq.n	8000c20 <HAL_CAN_IRQHandler+0xe0>
#if USE_HAL_CAN_REGISTER_CALLBACKS == 1
      /* Call registered callback*/
      hcan->RxFifo1MsgPendingCallback(hcan);
#else
      /* Call weak (surcharged) callback */
      HAL_CAN_RxFifo1MsgPendingCallback(hcan);
 8000c1a:	0028      	movs	r0, r5
 8000c1c:	f7ff ff8b 	bl	8000b36 <HAL_CAN_RxFifo1MsgPendingCallback>
#endif /* USE_HAL_CAN_REGISTER_CALLBACKS */
    }
  }

  /* Sleep interrupt management *********************************************/
  if ((interrupts & CAN_IT_SLEEP_ACK) != 0U)
 8000c20:	03b3      	lsls	r3, r6, #14
 8000c22:	d508      	bpl.n	8000c36 <HAL_CAN_IRQHandler+0xf6>
  {
    if ((msrflags & CAN_MSR_SLAKI) != 0U)
 8000c24:	2310      	movs	r3, #16
 8000c26:	9a01      	ldr	r2, [sp, #4]
 8000c28:	421a      	tst	r2, r3
 8000c2a:	d004      	beq.n	8000c36 <HAL_CAN_IRQHandler+0xf6>
    {
      /* Clear Sleep interrupt Flag */
      __HAL_CAN_CLEAR_FLAG(hcan, CAN_FLAG_SLAKI);
 8000c2c:	682a      	ldr	r2, [r5, #0]
#if USE_HAL_CAN_REGISTER_CALLBACKS == 1
      /* Call registered callback*/
      hcan->SleepCallback(hcan);
#else
      /* Call weak (surcharged) callback */
      HAL_CAN_SleepCallback(hcan);
 8000c2e:	0028      	movs	r0, r5
      __HAL_CAN_CLEAR_FLAG(hcan, CAN_FLAG_SLAKI);
 8000c30:	6053      	str	r3, [r2, #4]
      HAL_CAN_SleepCallback(hcan);
 8000c32:	f7ff ff82 	bl	8000b3a <HAL_CAN_SleepCallback>
#endif /* USE_HAL_CAN_REGISTER_CALLBACKS */
    }
  }

  /* WakeUp interrupt management *********************************************/
  if ((interrupts & CAN_IT_WAKEUP) != 0U)
 8000c36:	03f3      	lsls	r3, r6, #15
 8000c38:	d508      	bpl.n	8000c4c <HAL_CAN_IRQHandler+0x10c>
  {
    if ((msrflags & CAN_MSR_WKUI) != 0U)
 8000c3a:	2308      	movs	r3, #8
 8000c3c:	9a01      	ldr	r2, [sp, #4]
 8000c3e:	421a      	tst	r2, r3
 8000c40:	d004      	beq.n	8000c4c <HAL_CAN_IRQHandler+0x10c>
    {
      /* Clear WakeUp Flag */
      __HAL_CAN_CLEAR_FLAG(hcan, CAN_FLAG_WKU);
 8000c42:	682a      	ldr	r2, [r5, #0]
#if USE_HAL_CAN_REGISTER_CALLBACKS == 1
      /* Call registered callback*/
      hcan->WakeUpFromRxMsgCallback(hcan);
#else
      /* Call weak (surcharged) callback */
      HAL_CAN_WakeUpFromRxMsgCallback(hcan);
 8000c44:	0028      	movs	r0, r5
      __HAL_CAN_CLEAR_FLAG(hcan, CAN_FLAG_WKU);
 8000c46:	6053      	str	r3, [r2, #4]
      HAL_CAN_WakeUpFromRxMsgCallback(hcan);
 8000c48:	f7ff ff78 	bl	8000b3c <HAL_CAN_WakeUpFromRxMsgCallback>
#endif /* USE_HAL_CAN_REGISTER_CALLBACKS */
    }
  }

  /* Error interrupts management *********************************************/
  if ((interrupts & CAN_IT_ERROR) != 0U)
 8000c4c:	0433      	lsls	r3, r6, #16
 8000c4e:	d52c      	bpl.n	8000caa <HAL_CAN_IRQHandler+0x16a>
  {
    if ((msrflags & CAN_MSR_ERRI) != 0U)
 8000c50:	9b01      	ldr	r3, [sp, #4]
 8000c52:	682a      	ldr	r2, [r5, #0]
 8000c54:	075b      	lsls	r3, r3, #29
 8000c56:	d526      	bpl.n	8000ca6 <HAL_CAN_IRQHandler+0x166>
    {
      /* Check Error Warning Flag */
      if (((interrupts & CAN_IT_ERROR_WARNING) != 0U) &&
 8000c58:	05f3      	lsls	r3, r6, #23
 8000c5a:	d504      	bpl.n	8000c66 <HAL_CAN_IRQHandler+0x126>
          ((esrflags & CAN_ESR_EWGF) != 0U))
 8000c5c:	2301      	movs	r3, #1
      if (((interrupts & CAN_IT_ERROR_WARNING) != 0U) &&
 8000c5e:	9900      	ldr	r1, [sp, #0]
 8000c60:	4219      	tst	r1, r3
 8000c62:	d000      	beq.n	8000c66 <HAL_CAN_IRQHandler+0x126>
      {
        /* Set CAN error code to Error Warning */
        errorcode |= HAL_CAN_ERROR_EWG;
 8000c64:	431c      	orrs	r4, r3

        /* No need for clear of Error Warning Flag as read-only */
      }

      /* Check Error Passive Flag */
      if (((interrupts & CAN_IT_ERROR_PASSIVE) != 0U) &&
 8000c66:	05b3      	lsls	r3, r6, #22
 8000c68:	d504      	bpl.n	8000c74 <HAL_CAN_IRQHandler+0x134>
          ((esrflags & CAN_ESR_EPVF) != 0U))
 8000c6a:	2302      	movs	r3, #2
      if (((interrupts & CAN_IT_ERROR_PASSIVE) != 0U) &&
 8000c6c:	9900      	ldr	r1, [sp, #0]
 8000c6e:	4219      	tst	r1, r3
 8000c70:	d000      	beq.n	8000c74 <HAL_CAN_IRQHandler+0x134>
      {
        /* Set CAN error code to Error Passive */
        errorcode |= HAL_CAN_ERROR_EPV;
 8000c72:	431c      	orrs	r4, r3

        /* No need for clear of Error Passive Flag as read-only */
      }

      /* Check Bus-off Flag */
      if (((interrupts & CAN_IT_BUSOFF) != 0U) &&
 8000c74:	0573      	lsls	r3, r6, #21
 8000c76:	d504      	bpl.n	8000c82 <HAL_CAN_IRQHandler+0x142>
          ((esrflags & CAN_ESR_BOFF) != 0U))
 8000c78:	2304      	movs	r3, #4
      if (((interrupts & CAN_IT_BUSOFF) != 0U) &&
 8000c7a:	9900      	ldr	r1, [sp, #0]
 8000c7c:	4219      	tst	r1, r3
 8000c7e:	d000      	beq.n	8000c82 <HAL_CAN_IRQHandler+0x142>
      {
        /* Set CAN error code to Bus-Off */
        errorcode |= HAL_CAN_ERROR_BOF;
 8000c80:	431c      	orrs	r4, r3

        /* No need for clear of Error Bus-Off as read-only */
      }

      /* Check Last Error Code Flag */
      if (((interrupts & CAN_IT_LAST_ERROR_CODE) != 0U) &&
 8000c82:	0533      	lsls	r3, r6, #20
 8000c84:	d50f      	bpl.n	8000ca6 <HAL_CAN_IRQHandler+0x166>
          ((esrflags & CAN_ESR_LEC) != 0U))
 8000c86:	2370      	movs	r3, #112	; 0x70
 8000c88:	9900      	ldr	r1, [sp, #0]
 8000c8a:	4019      	ands	r1, r3
 8000c8c:	1e0b      	subs	r3, r1, #0
      if (((interrupts & CAN_IT_LAST_ERROR_CODE) != 0U) &&
 8000c8e:	d00a      	beq.n	8000ca6 <HAL_CAN_IRQHandler+0x166>
      {
        switch (esrflags & CAN_ESR_LEC)
 8000c90:	2930      	cmp	r1, #48	; 0x30
 8000c92:	d048      	beq.n	8000d26 <HAL_CAN_IRQHandler+0x1e6>
 8000c94:	d83b      	bhi.n	8000d0e <HAL_CAN_IRQHandler+0x1ce>
 8000c96:	2910      	cmp	r1, #16
 8000c98:	d041      	beq.n	8000d1e <HAL_CAN_IRQHandler+0x1de>
 8000c9a:	2920      	cmp	r1, #32
 8000c9c:	d041      	beq.n	8000d22 <HAL_CAN_IRQHandler+0x1e2>
          default:
            break;
        }

        /* Clear Last error code Flag */
        CLEAR_BIT(hcan->Instance->ESR, CAN_ESR_LEC);
 8000c9e:	2170      	movs	r1, #112	; 0x70
 8000ca0:	6993      	ldr	r3, [r2, #24]
 8000ca2:	438b      	bics	r3, r1
 8000ca4:	6193      	str	r3, [r2, #24]
      }
    }

    /* Clear ERRI Flag */
    __HAL_CAN_CLEAR_FLAG(hcan, CAN_FLAG_ERRI);
 8000ca6:	2304      	movs	r3, #4
 8000ca8:	6053      	str	r3, [r2, #4]
  }

  /* Call the Error call Back in case of Errors */
  if (errorcode != HAL_CAN_ERROR_NONE)
 8000caa:	2c00      	cmp	r4, #0
 8000cac:	d005      	beq.n	8000cba <HAL_CAN_IRQHandler+0x17a>
  {
    /* Update error code in handle */
    hcan->ErrorCode |= errorcode;
 8000cae:	6a6b      	ldr	r3, [r5, #36]	; 0x24
#if USE_HAL_CAN_REGISTER_CALLBACKS == 1
    /* Call registered callback*/
    hcan->ErrorCallback(hcan);
#else
    /* Call weak (surcharged) callback */
    HAL_CAN_ErrorCallback(hcan);
 8000cb0:	0028      	movs	r0, r5
    hcan->ErrorCode |= errorcode;
 8000cb2:	431c      	orrs	r4, r3
 8000cb4:	626c      	str	r4, [r5, #36]	; 0x24
    HAL_CAN_ErrorCallback(hcan);
 8000cb6:	f7ff ff42 	bl	8000b3e <HAL_CAN_ErrorCallback>
#endif /* USE_HAL_CAN_REGISTER_CALLBACKS */
  }
}
 8000cba:	b005      	add	sp, #20
 8000cbc:	bdf0      	pop	{r4, r5, r6, r7, pc}
        if ((tsrflags & CAN_TSR_ALST0) != 0U)
 8000cbe:	077b      	lsls	r3, r7, #29
 8000cc0:	d404      	bmi.n	8000ccc <HAL_CAN_IRQHandler+0x18c>
        else if ((tsrflags & CAN_TSR_TERR0) != 0U)
 8000cc2:	073b      	lsls	r3, r7, #28
 8000cc4:	d405      	bmi.n	8000cd2 <HAL_CAN_IRQHandler+0x192>
          HAL_CAN_TxMailbox0AbortCallback(hcan);
 8000cc6:	f7ff ff32 	bl	8000b2e <HAL_CAN_TxMailbox0AbortCallback>
 8000cca:	e753      	b.n	8000b74 <HAL_CAN_IRQHandler+0x34>
          errorcode |= HAL_CAN_ERROR_TX_ALST0;
 8000ccc:	2480      	movs	r4, #128	; 0x80
 8000cce:	0124      	lsls	r4, r4, #4
 8000cd0:	e750      	b.n	8000b74 <HAL_CAN_IRQHandler+0x34>
          errorcode |= HAL_CAN_ERROR_TX_TERR0;
 8000cd2:	2480      	movs	r4, #128	; 0x80
 8000cd4:	0164      	lsls	r4, r4, #5
 8000cd6:	e74d      	b.n	8000b74 <HAL_CAN_IRQHandler+0x34>
        if ((tsrflags & CAN_TSR_ALST1) != 0U)
 8000cd8:	057b      	lsls	r3, r7, #21
 8000cda:	d503      	bpl.n	8000ce4 <HAL_CAN_IRQHandler+0x1a4>
          errorcode |= HAL_CAN_ERROR_TX_ALST1;
 8000cdc:	2380      	movs	r3, #128	; 0x80
 8000cde:	019b      	lsls	r3, r3, #6
          errorcode |= HAL_CAN_ERROR_TX_TERR1;
 8000ce0:	431c      	orrs	r4, r3
 8000ce2:	e753      	b.n	8000b8c <HAL_CAN_IRQHandler+0x4c>
        else if ((tsrflags & CAN_TSR_TERR1) != 0U)
 8000ce4:	053b      	lsls	r3, r7, #20
 8000ce6:	d502      	bpl.n	8000cee <HAL_CAN_IRQHandler+0x1ae>
          errorcode |= HAL_CAN_ERROR_TX_TERR1;
 8000ce8:	2380      	movs	r3, #128	; 0x80
 8000cea:	01db      	lsls	r3, r3, #7
 8000cec:	e7f8      	b.n	8000ce0 <HAL_CAN_IRQHandler+0x1a0>
          HAL_CAN_TxMailbox1AbortCallback(hcan);
 8000cee:	0028      	movs	r0, r5
 8000cf0:	f7ff ff1e 	bl	8000b30 <HAL_CAN_TxMailbox1AbortCallback>
 8000cf4:	e74a      	b.n	8000b8c <HAL_CAN_IRQHandler+0x4c>
        if ((tsrflags & CAN_TSR_ALST2) != 0U)
 8000cf6:	037a      	lsls	r2, r7, #13
 8000cf8:	d503      	bpl.n	8000d02 <HAL_CAN_IRQHandler+0x1c2>
          errorcode |= HAL_CAN_ERROR_TX_ALST2;
 8000cfa:	2380      	movs	r3, #128	; 0x80
 8000cfc:	021b      	lsls	r3, r3, #8
          errorcode |= HAL_CAN_ERROR_TX_TERR2;
 8000cfe:	431c      	orrs	r4, r3
 8000d00:	e750      	b.n	8000ba4 <HAL_CAN_IRQHandler+0x64>
        else if ((tsrflags & CAN_TSR_TERR2) != 0U)
 8000d02:	033a      	lsls	r2, r7, #12
 8000d04:	d4fb      	bmi.n	8000cfe <HAL_CAN_IRQHandler+0x1be>
          HAL_CAN_TxMailbox2AbortCallback(hcan);
 8000d06:	0028      	movs	r0, r5
 8000d08:	f7ff ff13 	bl	8000b32 <HAL_CAN_TxMailbox2AbortCallback>
 8000d0c:	e74a      	b.n	8000ba4 <HAL_CAN_IRQHandler+0x64>
        switch (esrflags & CAN_ESR_LEC)
 8000d0e:	2950      	cmp	r1, #80	; 0x50
 8000d10:	d00b      	beq.n	8000d2a <HAL_CAN_IRQHandler+0x1ea>
 8000d12:	2960      	cmp	r1, #96	; 0x60
 8000d14:	d00b      	beq.n	8000d2e <HAL_CAN_IRQHandler+0x1ee>
 8000d16:	2940      	cmp	r1, #64	; 0x40
 8000d18:	d1c1      	bne.n	8000c9e <HAL_CAN_IRQHandler+0x15e>
            errorcode |= HAL_CAN_ERROR_CRC;
 8000d1a:	431c      	orrs	r4, r3
            break;
 8000d1c:	e7bf      	b.n	8000c9e <HAL_CAN_IRQHandler+0x15e>
            errorcode |= HAL_CAN_ERROR_STF;
 8000d1e:	2308      	movs	r3, #8
 8000d20:	e7fb      	b.n	8000d1a <HAL_CAN_IRQHandler+0x1da>
            errorcode |= HAL_CAN_ERROR_FOR;
 8000d22:	2310      	movs	r3, #16
 8000d24:	e7f9      	b.n	8000d1a <HAL_CAN_IRQHandler+0x1da>
            errorcode |= HAL_CAN_ERROR_ACK;
 8000d26:	2320      	movs	r3, #32
 8000d28:	e7f7      	b.n	8000d1a <HAL_CAN_IRQHandler+0x1da>
            errorcode |= HAL_CAN_ERROR_BD;
 8000d2a:	2380      	movs	r3, #128	; 0x80
 8000d2c:	e7f5      	b.n	8000d1a <HAL_CAN_IRQHandler+0x1da>
            errorcode |= HAL_CAN_ERROR_CRC;
 8000d2e:	2380      	movs	r3, #128	; 0x80
 8000d30:	005b      	lsls	r3, r3, #1
 8000d32:	e7f2      	b.n	8000d1a <HAL_CAN_IRQHandler+0x1da>

08000d34 <HAL_NVIC_SetPriority>:
  *         with stm32f0xx devices, this parameter is a dummy value and it is ignored, because 
  *         no subpriority supported in Cortex M0 based products.   
  * @retval None
  */
void HAL_NVIC_SetPriority(IRQn_Type IRQn, uint32_t PreemptPriority, uint32_t SubPriority)
{ 
 8000d34:	b530      	push	{r4, r5, lr}
 8000d36:	25ff      	movs	r5, #255	; 0xff
 8000d38:	2403      	movs	r4, #3
 8000d3a:	002a      	movs	r2, r5
 8000d3c:	b2c3      	uxtb	r3, r0
 8000d3e:	401c      	ands	r4, r3
 8000d40:	00e4      	lsls	r4, r4, #3
 8000d42:	40a2      	lsls	r2, r4
 8000d44:	0189      	lsls	r1, r1, #6
 8000d46:	4029      	ands	r1, r5
 8000d48:	43d2      	mvns	r2, r2
 8000d4a:	40a1      	lsls	r1, r4
  \param [in]  priority  Priority to set.
  \note    The priority cannot be set for every processor exception.
 */
__STATIC_INLINE void __NVIC_SetPriority(IRQn_Type IRQn, uint32_t priority)
{
  if ((int32_t)(IRQn) >= 0)
 8000d4c:	2800      	cmp	r0, #0
 8000d4e:	db0a      	blt.n	8000d66 <HAL_NVIC_SetPriority+0x32>
  {
    NVIC->IP[_IP_IDX(IRQn)]  = ((uint32_t)(NVIC->IP[_IP_IDX(IRQn)]  & ~(0xFFUL << _BIT_SHIFT(IRQn))) |
 8000d50:	24c0      	movs	r4, #192	; 0xc0
 8000d52:	4b0b      	ldr	r3, [pc, #44]	; (8000d80 <HAL_NVIC_SetPriority+0x4c>)
 8000d54:	0880      	lsrs	r0, r0, #2
 8000d56:	0080      	lsls	r0, r0, #2
 8000d58:	18c0      	adds	r0, r0, r3
 8000d5a:	00a4      	lsls	r4, r4, #2
 8000d5c:	5903      	ldr	r3, [r0, r4]
 8000d5e:	401a      	ands	r2, r3
 8000d60:	4311      	orrs	r1, r2
 8000d62:	5101      	str	r1, [r0, r4]
  /* Check the parameters */
  assert_param(IS_NVIC_PREEMPTION_PRIORITY(PreemptPriority));
  NVIC_SetPriority(IRQn,PreemptPriority);
}
 8000d64:	bd30      	pop	{r4, r5, pc}
       (((priority << (8U - __NVIC_PRIO_BITS)) & (uint32_t)0xFFUL) << _BIT_SHIFT(IRQn)));
  }
  else
  {
    SCB->SHP[_SHP_IDX(IRQn)] = ((uint32_t)(SCB->SHP[_SHP_IDX(IRQn)] & ~(0xFFUL << _BIT_SHIFT(IRQn))) |
 8000d66:	200f      	movs	r0, #15
 8000d68:	4003      	ands	r3, r0
 8000d6a:	3b08      	subs	r3, #8
 8000d6c:	4805      	ldr	r0, [pc, #20]	; (8000d84 <HAL_NVIC_SetPriority+0x50>)
 8000d6e:	089b      	lsrs	r3, r3, #2
 8000d70:	009b      	lsls	r3, r3, #2
 8000d72:	181b      	adds	r3, r3, r0
 8000d74:	69d8      	ldr	r0, [r3, #28]
 8000d76:	4002      	ands	r2, r0
 8000d78:	4311      	orrs	r1, r2
 8000d7a:	61d9      	str	r1, [r3, #28]
 8000d7c:	e7f2      	b.n	8000d64 <HAL_NVIC_SetPriority+0x30>
 8000d7e:	46c0      	nop			; (mov r8, r8)
 8000d80:	e000e100 	.word	0xe000e100
 8000d84:	e000ed00 	.word	0xe000ed00

08000d88 <HAL_NVIC_EnableIRQ>:
  if ((int32_t)(IRQn) >= 0)
 8000d88:	2800      	cmp	r0, #0
 8000d8a:	db05      	blt.n	8000d98 <HAL_NVIC_EnableIRQ+0x10>
    NVIC->ISER[0U] = (uint32_t)(1UL << (((uint32_t)IRQn) & 0x1FUL));
 8000d8c:	231f      	movs	r3, #31
 8000d8e:	4018      	ands	r0, r3
 8000d90:	3b1e      	subs	r3, #30
 8000d92:	4083      	lsls	r3, r0
 8000d94:	4a01      	ldr	r2, [pc, #4]	; (8000d9c <HAL_NVIC_EnableIRQ+0x14>)
 8000d96:	6013      	str	r3, [r2, #0]
  /* Check the parameters */
  assert_param(IS_NVIC_DEVICE_IRQ(IRQn));
  
  /* Enable interrupt */
  NVIC_EnableIRQ(IRQn);
}
 8000d98:	4770      	bx	lr
 8000d9a:	46c0      	nop			; (mov r8, r8)
 8000d9c:	e000e100 	.word	0xe000e100

08000da0 <HAL_SYSTICK_Config>:
           function <b>SysTick_Config</b> is not included. In this case, the file <b><i>device</i>.h</b>
           must contain a vendor-specific implementation of this function.
 */
__STATIC_INLINE uint32_t SysTick_Config(uint32_t ticks)
{
  if ((ticks - 1UL) > SysTick_LOAD_RELOAD_Msk)
 8000da0:	4a09      	ldr	r2, [pc, #36]	; (8000dc8 <HAL_SYSTICK_Config+0x28>)
 8000da2:	1e43      	subs	r3, r0, #1
  {
    return (1UL);                                                   /* Reload value impossible */
 8000da4:	2001      	movs	r0, #1
  if ((ticks - 1UL) > SysTick_LOAD_RELOAD_Msk)
 8000da6:	4293      	cmp	r3, r2
 8000da8:	d80d      	bhi.n	8000dc6 <HAL_SYSTICK_Config+0x26>
    SCB->SHP[_SHP_IDX(IRQn)] = ((uint32_t)(SCB->SHP[_SHP_IDX(IRQn)] & ~(0xFFUL << _BIT_SHIFT(IRQn))) |
 8000daa:	21c0      	movs	r1, #192	; 0xc0
  }

  SysTick->LOAD  = (uint32_t)(ticks - 1UL);                         /* set reload register */
 8000dac:	4a07      	ldr	r2, [pc, #28]	; (8000dcc <HAL_SYSTICK_Config+0x2c>)
    SCB->SHP[_SHP_IDX(IRQn)] = ((uint32_t)(SCB->SHP[_SHP_IDX(IRQn)] & ~(0xFFUL << _BIT_SHIFT(IRQn))) |
 8000dae:	4808      	ldr	r0, [pc, #32]	; (8000dd0 <HAL_SYSTICK_Config+0x30>)
  SysTick->LOAD  = (uint32_t)(ticks - 1UL);                         /* set reload register */
 8000db0:	6053      	str	r3, [r2, #4]
    SCB->SHP[_SHP_IDX(IRQn)] = ((uint32_t)(SCB->SHP[_SHP_IDX(IRQn)] & ~(0xFFUL << _BIT_SHIFT(IRQn))) |
 8000db2:	6a03      	ldr	r3, [r0, #32]
 8000db4:	0609      	lsls	r1, r1, #24
 8000db6:	021b      	lsls	r3, r3, #8
 8000db8:	0a1b      	lsrs	r3, r3, #8
 8000dba:	430b      	orrs	r3, r1
 8000dbc:	6203      	str	r3, [r0, #32]
  NVIC_SetPriority (SysTick_IRQn, (1UL << __NVIC_PRIO_BITS) - 1UL); /* set Priority for Systick Interrupt */
  SysTick->VAL   = 0UL;                                             /* Load the SysTick Counter Value */
 8000dbe:	2000      	movs	r0, #0
  SysTick->CTRL  = SysTick_CTRL_CLKSOURCE_Msk |
 8000dc0:	2307      	movs	r3, #7
  SysTick->VAL   = 0UL;                                             /* Load the SysTick Counter Value */
 8000dc2:	6090      	str	r0, [r2, #8]
  SysTick->CTRL  = SysTick_CTRL_CLKSOURCE_Msk |
 8000dc4:	6013      	str	r3, [r2, #0]
  *                  - 1  Function failed.
  */
uint32_t HAL_SYSTICK_Config(uint32_t TicksNumb)
{
   return SysTick_Config(TicksNumb);
}
 8000dc6:	4770      	bx	lr
 8000dc8:	00ffffff 	.word	0x00ffffff
 8000dcc:	e000e010 	.word	0xe000e010
 8000dd0:	e000ed00 	.word	0xe000ed00

08000dd4 <HAL_GPIO_Init>:
  * @param  GPIO_Init pointer to a GPIO_InitTypeDef structure that contains
  *         the configuration information for the specified GPIO peripheral.
  * @retval None
  */
void HAL_GPIO_Init(GPIO_TypeDef  *GPIOx, GPIO_InitTypeDef *GPIO_Init)
{ 
 8000dd4:	b5f0      	push	{r4, r5, r6, r7, lr}
  assert_param(IS_GPIO_PIN(GPIO_Init->Pin));
  assert_param(IS_GPIO_MODE(GPIO_Init->Mode));
  assert_param(IS_GPIO_PULL(GPIO_Init->Pull));

  /* Configure the port pins */
  while (((GPIO_Init->Pin) >> position) != 0x00u)
 8000dd6:	680b      	ldr	r3, [r1, #0]
{ 
 8000dd8:	b087      	sub	sp, #28
  while (((GPIO_Init->Pin) >> position) != 0x00u)
 8000dda:	9303      	str	r3, [sp, #12]
  uint32_t position = 0x00u;
 8000ddc:	2300      	movs	r3, #0
{ 
 8000dde:	9101      	str	r1, [sp, #4]
  while (((GPIO_Init->Pin) >> position) != 0x00u)
 8000de0:	9a03      	ldr	r2, [sp, #12]
 8000de2:	40da      	lsrs	r2, r3
 8000de4:	d101      	bne.n	8000dea <HAL_GPIO_Init+0x16>
      }
    }

    position++;
  } 
}
 8000de6:	b007      	add	sp, #28
 8000de8:	bdf0      	pop	{r4, r5, r6, r7, pc}
    iocurrent = (GPIO_Init->Pin) & (1uL << position);
 8000dea:	2201      	movs	r2, #1
 8000dec:	409a      	lsls	r2, r3
 8000dee:	9202      	str	r2, [sp, #8]
 8000df0:	9902      	ldr	r1, [sp, #8]
 8000df2:	9a03      	ldr	r2, [sp, #12]
 8000df4:	400a      	ands	r2, r1
 8000df6:	9200      	str	r2, [sp, #0]
    if (iocurrent != 0x00u)
 8000df8:	d100      	bne.n	8000dfc <HAL_GPIO_Init+0x28>
 8000dfa:	e088      	b.n	8000f0e <HAL_GPIO_Init+0x13a>
      if((GPIO_Init->Mode == GPIO_MODE_AF_PP) || (GPIO_Init->Mode == GPIO_MODE_AF_OD))
 8000dfc:	9a01      	ldr	r2, [sp, #4]
 8000dfe:	2110      	movs	r1, #16
 8000e00:	6852      	ldr	r2, [r2, #4]
 8000e02:	0016      	movs	r6, r2
 8000e04:	438e      	bics	r6, r1
 8000e06:	2e02      	cmp	r6, #2
 8000e08:	d10e      	bne.n	8000e28 <HAL_GPIO_Init+0x54>
        temp &= ~(0xFu << ((position & 0x07u) * 4u));
 8000e0a:	2507      	movs	r5, #7
 8000e0c:	401d      	ands	r5, r3
 8000e0e:	00ad      	lsls	r5, r5, #2
 8000e10:	3901      	subs	r1, #1
 8000e12:	40a9      	lsls	r1, r5
        temp = GPIOx->AFR[position >> 3u];
 8000e14:	08dc      	lsrs	r4, r3, #3
 8000e16:	00a4      	lsls	r4, r4, #2
 8000e18:	1904      	adds	r4, r0, r4
 8000e1a:	6a27      	ldr	r7, [r4, #32]
        temp &= ~(0xFu << ((position & 0x07u) * 4u));
 8000e1c:	438f      	bics	r7, r1
        temp |= ((GPIO_Init->Alternate) << ((position & 0x07u) * 4u));
 8000e1e:	9901      	ldr	r1, [sp, #4]
 8000e20:	6909      	ldr	r1, [r1, #16]
 8000e22:	40a9      	lsls	r1, r5
 8000e24:	430f      	orrs	r7, r1
        GPIOx->AFR[position >> 3u] = temp;
 8000e26:	6227      	str	r7, [r4, #32]
      temp &= ~(GPIO_MODER_MODER0 << (position * 2u));
 8000e28:	2403      	movs	r4, #3
 8000e2a:	005f      	lsls	r7, r3, #1
 8000e2c:	40bc      	lsls	r4, r7
 8000e2e:	43e4      	mvns	r4, r4
      temp = GPIOx->MODER;
 8000e30:	6805      	ldr	r5, [r0, #0]
      if((GPIO_Init->Mode == GPIO_MODE_OUTPUT_PP) || (GPIO_Init->Mode == GPIO_MODE_AF_PP) ||
 8000e32:	3e01      	subs	r6, #1
      temp &= ~(GPIO_MODER_MODER0 << (position * 2u));
 8000e34:	4025      	ands	r5, r4
 8000e36:	46ac      	mov	ip, r5
      temp |= ((GPIO_Init->Mode & GPIO_MODE) << (position * 2u));
 8000e38:	2503      	movs	r5, #3
 8000e3a:	4015      	ands	r5, r2
 8000e3c:	40bd      	lsls	r5, r7
 8000e3e:	4661      	mov	r1, ip
 8000e40:	430d      	orrs	r5, r1
      GPIOx->MODER = temp;
 8000e42:	6005      	str	r5, [r0, #0]
      if((GPIO_Init->Mode == GPIO_MODE_OUTPUT_PP) || (GPIO_Init->Mode == GPIO_MODE_AF_PP) ||
 8000e44:	2e01      	cmp	r6, #1
 8000e46:	d80f      	bhi.n	8000e68 <HAL_GPIO_Init+0x94>
        temp |= (GPIO_Init->Speed << (position * 2u));
 8000e48:	9901      	ldr	r1, [sp, #4]
        temp = GPIOx->OSPEEDR;
 8000e4a:	6886      	ldr	r6, [r0, #8]
        temp |= (GPIO_Init->Speed << (position * 2u));
 8000e4c:	68cd      	ldr	r5, [r1, #12]
        temp &= ~(GPIO_OSPEEDER_OSPEEDR0 << (position * 2u));
 8000e4e:	4026      	ands	r6, r4
        temp |= (GPIO_Init->Speed << (position * 2u));
 8000e50:	40bd      	lsls	r5, r7
 8000e52:	4335      	orrs	r5, r6
        GPIOx->OSPEEDR = temp;
 8000e54:	6085      	str	r5, [r0, #8]
        temp = GPIOx->OTYPER;
 8000e56:	6846      	ldr	r6, [r0, #4]
        temp &= ~(GPIO_OTYPER_OT_0 << position) ;
 8000e58:	9902      	ldr	r1, [sp, #8]
        temp |= (((GPIO_Init->Mode & GPIO_OUTPUT_TYPE) >> 4u) << position);
 8000e5a:	0915      	lsrs	r5, r2, #4
        temp &= ~(GPIO_OTYPER_OT_0 << position) ;
 8000e5c:	438e      	bics	r6, r1
        temp |= (((GPIO_Init->Mode & GPIO_OUTPUT_TYPE) >> 4u) << position);
 8000e5e:	2101      	movs	r1, #1
 8000e60:	400d      	ands	r5, r1
 8000e62:	409d      	lsls	r5, r3
 8000e64:	4335      	orrs	r5, r6
        GPIOx->OTYPER = temp;
 8000e66:	6045      	str	r5, [r0, #4]
      temp = GPIOx->PUPDR;
 8000e68:	68c5      	ldr	r5, [r0, #12]
      temp |= ((GPIO_Init->Pull) << (position * 2u));
 8000e6a:	9901      	ldr	r1, [sp, #4]
      temp &= ~(GPIO_PUPDR_PUPDR0 << (position * 2u));
 8000e6c:	402c      	ands	r4, r5
      temp |= ((GPIO_Init->Pull) << (position * 2u));
 8000e6e:	688d      	ldr	r5, [r1, #8]
      if((GPIO_Init->Mode & EXTI_MODE) == EXTI_MODE)
 8000e70:	2180      	movs	r1, #128	; 0x80
      temp |= ((GPIO_Init->Pull) << (position * 2u));
 8000e72:	40bd      	lsls	r5, r7
      if((GPIO_Init->Mode & EXTI_MODE) == EXTI_MODE)
 8000e74:	0549      	lsls	r1, r1, #21
      temp |= ((GPIO_Init->Pull) << (position * 2u));
 8000e76:	432c      	orrs	r4, r5
      GPIOx->PUPDR = temp;
 8000e78:	60c4      	str	r4, [r0, #12]
      if((GPIO_Init->Mode & EXTI_MODE) == EXTI_MODE)
 8000e7a:	420a      	tst	r2, r1
 8000e7c:	d047      	beq.n	8000f0e <HAL_GPIO_Init+0x13a>
        __HAL_RCC_SYSCFG_CLK_ENABLE();
 8000e7e:	2101      	movs	r1, #1
 8000e80:	4c24      	ldr	r4, [pc, #144]	; (8000f14 <HAL_GPIO_Init+0x140>)
        temp &= ~(0x0FuL << (4u * (position & 0x03u)));
 8000e82:	2603      	movs	r6, #3
        __HAL_RCC_SYSCFG_CLK_ENABLE();
 8000e84:	69a5      	ldr	r5, [r4, #24]
        temp &= ~(0x0FuL << (4u * (position & 0x03u)));
 8000e86:	401e      	ands	r6, r3
        __HAL_RCC_SYSCFG_CLK_ENABLE();
 8000e88:	430d      	orrs	r5, r1
 8000e8a:	61a5      	str	r5, [r4, #24]
 8000e8c:	69a4      	ldr	r4, [r4, #24]
        temp = SYSCFG->EXTICR[position >> 2u];
 8000e8e:	089d      	lsrs	r5, r3, #2
        __HAL_RCC_SYSCFG_CLK_ENABLE();
 8000e90:	400c      	ands	r4, r1
 8000e92:	9405      	str	r4, [sp, #20]
 8000e94:	9c05      	ldr	r4, [sp, #20]
        temp &= ~(0x0FuL << (4u * (position & 0x03u)));
 8000e96:	240f      	movs	r4, #15
 8000e98:	491f      	ldr	r1, [pc, #124]	; (8000f18 <HAL_GPIO_Init+0x144>)
 8000e9a:	00ad      	lsls	r5, r5, #2
 8000e9c:	00b6      	lsls	r6, r6, #2
 8000e9e:	186d      	adds	r5, r5, r1
 8000ea0:	40b4      	lsls	r4, r6
        temp |= (GPIO_GET_INDEX(GPIOx) << (4u * (position & 0x03u)));
 8000ea2:	2190      	movs	r1, #144	; 0x90
        temp = SYSCFG->EXTICR[position >> 2u];
 8000ea4:	68af      	ldr	r7, [r5, #8]
        temp |= (GPIO_GET_INDEX(GPIOx) << (4u * (position & 0x03u)));
 8000ea6:	05c9      	lsls	r1, r1, #23
        temp &= ~(0x0FuL << (4u * (position & 0x03u)));
 8000ea8:	43a7      	bics	r7, r4
        temp |= (GPIO_GET_INDEX(GPIOx) << (4u * (position & 0x03u)));
 8000eaa:	2400      	movs	r4, #0
 8000eac:	4288      	cmp	r0, r1
 8000eae:	d008      	beq.n	8000ec2 <HAL_GPIO_Init+0xee>
 8000eb0:	491a      	ldr	r1, [pc, #104]	; (8000f1c <HAL_GPIO_Init+0x148>)
 8000eb2:	3401      	adds	r4, #1
 8000eb4:	4288      	cmp	r0, r1
 8000eb6:	d004      	beq.n	8000ec2 <HAL_GPIO_Init+0xee>
 8000eb8:	4919      	ldr	r1, [pc, #100]	; (8000f20 <HAL_GPIO_Init+0x14c>)
 8000eba:	3404      	adds	r4, #4
 8000ebc:	4288      	cmp	r0, r1
 8000ebe:	d100      	bne.n	8000ec2 <HAL_GPIO_Init+0xee>
 8000ec0:	3c03      	subs	r4, #3
 8000ec2:	40b4      	lsls	r4, r6
        temp &= ~(iocurrent);
 8000ec4:	9900      	ldr	r1, [sp, #0]
        temp |= (GPIO_GET_INDEX(GPIOx) << (4u * (position & 0x03u)));
 8000ec6:	433c      	orrs	r4, r7
          temp |= iocurrent;
 8000ec8:	000e      	movs	r6, r1
        SYSCFG->EXTICR[position >> 2u] = temp;
 8000eca:	60ac      	str	r4, [r5, #8]
        temp = EXTI->IMR;
 8000ecc:	4c15      	ldr	r4, [pc, #84]	; (8000f24 <HAL_GPIO_Init+0x150>)
        temp &= ~(iocurrent);
 8000ece:	43cd      	mvns	r5, r1
        temp = EXTI->IMR;
 8000ed0:	6827      	ldr	r7, [r4, #0]
          temp |= iocurrent;
 8000ed2:	433e      	orrs	r6, r7
        if((GPIO_Init->Mode & GPIO_MODE_IT) == GPIO_MODE_IT)
 8000ed4:	03d1      	lsls	r1, r2, #15
 8000ed6:	d401      	bmi.n	8000edc <HAL_GPIO_Init+0x108>
        temp &= ~(iocurrent);
 8000ed8:	003e      	movs	r6, r7
 8000eda:	402e      	ands	r6, r5
        EXTI->IMR = temp;
 8000edc:	6026      	str	r6, [r4, #0]
        temp = EXTI->EMR;
 8000ede:	6867      	ldr	r7, [r4, #4]
          temp |= iocurrent;
 8000ee0:	9e00      	ldr	r6, [sp, #0]
 8000ee2:	433e      	orrs	r6, r7
        if((GPIO_Init->Mode & GPIO_MODE_EVT) == GPIO_MODE_EVT)
 8000ee4:	0391      	lsls	r1, r2, #14
 8000ee6:	d401      	bmi.n	8000eec <HAL_GPIO_Init+0x118>
        temp &= ~(iocurrent);
 8000ee8:	003e      	movs	r6, r7
 8000eea:	402e      	ands	r6, r5
        EXTI->EMR = temp;
 8000eec:	6066      	str	r6, [r4, #4]
        temp = EXTI->RTSR;
 8000eee:	68a7      	ldr	r7, [r4, #8]
          temp |= iocurrent;
 8000ef0:	9e00      	ldr	r6, [sp, #0]
 8000ef2:	433e      	orrs	r6, r7
        if((GPIO_Init->Mode & RISING_EDGE) == RISING_EDGE)
 8000ef4:	02d1      	lsls	r1, r2, #11
 8000ef6:	d401      	bmi.n	8000efc <HAL_GPIO_Init+0x128>
        temp &= ~(iocurrent);
 8000ef8:	003e      	movs	r6, r7
 8000efa:	402e      	ands	r6, r5
        EXTI->RTSR = temp;
 8000efc:	60a6      	str	r6, [r4, #8]
        temp = EXTI->FTSR;
 8000efe:	68e6      	ldr	r6, [r4, #12]
          temp |= iocurrent;
 8000f00:	9f00      	ldr	r7, [sp, #0]
 8000f02:	4337      	orrs	r7, r6
        if((GPIO_Init->Mode & FALLING_EDGE) == FALLING_EDGE)
 8000f04:	0292      	lsls	r2, r2, #10
 8000f06:	d401      	bmi.n	8000f0c <HAL_GPIO_Init+0x138>
        temp &= ~(iocurrent);
 8000f08:	402e      	ands	r6, r5
 8000f0a:	0037      	movs	r7, r6
        EXTI->FTSR = temp;
 8000f0c:	60e7      	str	r7, [r4, #12]
    position++;
 8000f0e:	3301      	adds	r3, #1
 8000f10:	e766      	b.n	8000de0 <HAL_GPIO_Init+0xc>
 8000f12:	46c0      	nop			; (mov r8, r8)
 8000f14:	40021000 	.word	0x40021000
 8000f18:	40010000 	.word	0x40010000
 8000f1c:	48000400 	.word	0x48000400
 8000f20:	48000800 	.word	0x48000800
 8000f24:	40010400 	.word	0x40010400

08000f28 <HAL_GPIO_WritePin>:
{
  /* Check the parameters */
  assert_param(IS_GPIO_PIN(GPIO_Pin));
  assert_param(IS_GPIO_PIN_ACTION(PinState));

  if (PinState != GPIO_PIN_RESET)
 8000f28:	2a00      	cmp	r2, #0
 8000f2a:	d001      	beq.n	8000f30 <HAL_GPIO_WritePin+0x8>
  {
    GPIOx->BSRR = (uint32_t)GPIO_Pin;
 8000f2c:	6181      	str	r1, [r0, #24]
  }
  else
  {
    GPIOx->BRR = (uint32_t)GPIO_Pin;
  }
}
 8000f2e:	4770      	bx	lr
    GPIOx->BRR = (uint32_t)GPIO_Pin;
 8000f30:	6281      	str	r1, [r0, #40]	; 0x28
}
 8000f32:	e7fc      	b.n	8000f2e <HAL_GPIO_WritePin+0x6>

08000f34 <HAL_I2CEx_EnableFastModePlus>:
  * @note  For all I2C2 pins fast mode plus driving capability can be enabled
  *        only by using I2C_FASTMODEPLUS_I2C2 parameter.
  * @retval None
  */
void HAL_I2CEx_EnableFastModePlus(uint32_t ConfigFastModePlus)
{
 8000f34:	b513      	push	{r0, r1, r4, lr}
  /* Check the parameter */
  assert_param(IS_I2C_FASTMODEPLUS(ConfigFastModePlus));

  /* Enable SYSCFG clock */
  __HAL_RCC_SYSCFG_CLK_ENABLE();
 8000f36:	2401      	movs	r4, #1
 8000f38:	4a06      	ldr	r2, [pc, #24]	; (8000f54 <HAL_I2CEx_EnableFastModePlus+0x20>)
 8000f3a:	6991      	ldr	r1, [r2, #24]
 8000f3c:	4321      	orrs	r1, r4
 8000f3e:	6191      	str	r1, [r2, #24]
 8000f40:	6993      	ldr	r3, [r2, #24]

  /* Enable fast mode plus driving capability for selected pin */
  SET_BIT(SYSCFG->CFGR1, (uint32_t)ConfigFastModePlus);
 8000f42:	4a05      	ldr	r2, [pc, #20]	; (8000f58 <HAL_I2CEx_EnableFastModePlus+0x24>)
  __HAL_RCC_SYSCFG_CLK_ENABLE();
 8000f44:	4023      	ands	r3, r4
 8000f46:	9301      	str	r3, [sp, #4]
 8000f48:	9b01      	ldr	r3, [sp, #4]
  SET_BIT(SYSCFG->CFGR1, (uint32_t)ConfigFastModePlus);
 8000f4a:	6813      	ldr	r3, [r2, #0]
 8000f4c:	4318      	orrs	r0, r3
 8000f4e:	6010      	str	r0, [r2, #0]
}
 8000f50:	bd13      	pop	{r0, r1, r4, pc}
 8000f52:	46c0      	nop			; (mov r8, r8)
 8000f54:	40021000 	.word	0x40021000
 8000f58:	40010000 	.word	0x40010000

08000f5c <HAL_PCD_Init>:
  *         parameters in the PCD_InitTypeDef and initialize the associated handle.
  * @param  hpcd PCD handle
  * @retval HAL status
  */
HAL_StatusTypeDef HAL_PCD_Init(PCD_HandleTypeDef *hpcd)
{
 8000f5c:	b5f0      	push	{r4, r5, r6, r7, lr}
 8000f5e:	0004      	movs	r4, r0
 8000f60:	b087      	sub	sp, #28
  uint8_t i;

  /* Check the PCD handle allocation */
  if (hpcd == NULL)
  {
    return HAL_ERROR;
 8000f62:	2501      	movs	r5, #1
  if (hpcd == NULL)
 8000f64:	2800      	cmp	r0, #0
 8000f66:	d031      	beq.n	8000fcc <HAL_PCD_Init+0x70>
  }

  /* Check the parameters */
  assert_param(IS_PCD_ALL_INSTANCE(hpcd->Instance));

  if (hpcd->State == HAL_PCD_STATE_RESET)
 8000f68:	4d2c      	ldr	r5, [pc, #176]	; (800101c <HAL_PCD_Init+0xc0>)
 8000f6a:	5d43      	ldrb	r3, [r0, r5]
 8000f6c:	b2db      	uxtb	r3, r3
 8000f6e:	2b00      	cmp	r3, #0
 8000f70:	d104      	bne.n	8000f7c <HAL_PCD_Init+0x20>
  {
    /* Allocate lock resource and initialize it */
    hpcd->Lock = HAL_UNLOCKED;
 8000f72:	228a      	movs	r2, #138	; 0x8a
 8000f74:	0092      	lsls	r2, r2, #2
 8000f76:	5483      	strb	r3, [r0, r2]

    /* Init the low level hardware */
    hpcd->MspInitCallback(hpcd);
#else
    /* Init the low level hardware : GPIO, CLOCK, NVIC... */
    HAL_PCD_MspInit(hpcd);
 8000f78:	f001 fe52 	bl	8002c20 <HAL_PCD_MspInit>
#endif /* (USE_HAL_PCD_REGISTER_CALLBACKS) */
  }

  hpcd->State = HAL_PCD_STATE_BUSY;
 8000f7c:	2303      	movs	r3, #3

  /* Disable the Interrupts */
  __HAL_PCD_DISABLE(hpcd);
 8000f7e:	6820      	ldr	r0, [r4, #0]
  hpcd->State = HAL_PCD_STATE_BUSY;
 8000f80:	5563      	strb	r3, [r4, r5]
  __HAL_PCD_DISABLE(hpcd);
 8000f82:	f000 fc41 	bl	8001808 <USB_DisableGlobalInt>

  /* Init endpoints structures */
  for (i = 0U; i < hpcd->Init.dev_endpoints; i++)
 8000f86:	2300      	movs	r3, #0
  {
    /* Init ep structure */
    hpcd->IN_ep[i].is_in = 1U;
 8000f88:	2601      	movs	r6, #1
    hpcd->IN_ep[i].num = i;
    hpcd->IN_ep[i].tx_fifo_num = i;
    /* Control until ep is activated */
    hpcd->IN_ep[i].type = EP_TYPE_CTRL;
 8000f8a:	0018      	movs	r0, r3
  for (i = 0U; i < hpcd->Init.dev_endpoints; i++)
 8000f8c:	6861      	ldr	r1, [r4, #4]
 8000f8e:	428b      	cmp	r3, r1
 8000f90:	d31f      	bcc.n	8000fd2 <HAL_PCD_Init+0x76>
    hpcd->IN_ep[i].maxpacket = 0U;
    hpcd->IN_ep[i].xfer_buff = 0U;
    hpcd->IN_ep[i].xfer_len = 0U;
  }

  for (i = 0U; i < hpcd->Init.dev_endpoints; i++)
 8000f92:	2300      	movs	r3, #0
  {
    hpcd->OUT_ep[i].is_in = 0U;
 8000f94:	0018      	movs	r0, r3
  for (i = 0U; i < hpcd->Init.dev_endpoints; i++)
 8000f96:	4299      	cmp	r1, r3
 8000f98:	d82c      	bhi.n	8000ff4 <HAL_PCD_Init+0x98>
    hpcd->OUT_ep[i].xfer_buff = 0U;
    hpcd->OUT_ep[i].xfer_len = 0U;
  }

  /* Init Device */
  (void)USB_DevInit(hpcd->Instance, hpcd->Init);
 8000f9a:	0023      	movs	r3, r4
 8000f9c:	466a      	mov	r2, sp
 8000f9e:	3310      	adds	r3, #16
 8000fa0:	cb43      	ldmia	r3!, {r0, r1, r6}
 8000fa2:	c243      	stmia	r2!, {r0, r1, r6}
 8000fa4:	cb03      	ldmia	r3!, {r0, r1}
 8000fa6:	c203      	stmia	r2!, {r0, r1}
 8000fa8:	68a2      	ldr	r2, [r4, #8]
 8000faa:	68e3      	ldr	r3, [r4, #12]
 8000fac:	6861      	ldr	r1, [r4, #4]
 8000fae:	6820      	ldr	r0, [r4, #0]
 8000fb0:	f000 fc34 	bl	800181c <USB_DevInit>

  hpcd->USB_Address = 0U;
 8000fb4:	2300      	movs	r3, #0
 8000fb6:	1d62      	adds	r2, r4, #5
 8000fb8:	77d3      	strb	r3, [r2, #31]
  hpcd->State = HAL_PCD_STATE_READY;
 8000fba:	2201      	movs	r2, #1
 8000fbc:	5562      	strb	r2, [r4, r5]
  if (hpcd->Init.lpm_enable == 1U)
  {
    (void)HAL_PCDEx_ActivateLPM(hpcd);
  }
  
  return HAL_OK;
 8000fbe:	001d      	movs	r5, r3
  if (hpcd->Init.lpm_enable == 1U)
 8000fc0:	69e3      	ldr	r3, [r4, #28]
 8000fc2:	4293      	cmp	r3, r2
 8000fc4:	d102      	bne.n	8000fcc <HAL_PCD_Init+0x70>
    (void)HAL_PCDEx_ActivateLPM(hpcd);
 8000fc6:	0020      	movs	r0, r4
 8000fc8:	f000 fba2 	bl	8001710 <HAL_PCDEx_ActivateLPM>
}
 8000fcc:	0028      	movs	r0, r5
 8000fce:	b007      	add	sp, #28
 8000fd0:	bdf0      	pop	{r4, r5, r6, r7, pc}
    hpcd->IN_ep[i].is_in = 1U;
 8000fd2:	015a      	lsls	r2, r3, #5
 8000fd4:	18a2      	adds	r2, r4, r2
 8000fd6:	0017      	movs	r7, r2
 8000fd8:	3729      	adds	r7, #41	; 0x29
 8000fda:	703e      	strb	r6, [r7, #0]
    hpcd->IN_ep[i].num = i;
 8000fdc:	3f01      	subs	r7, #1
 8000fde:	703b      	strb	r3, [r7, #0]
    hpcd->IN_ep[i].tx_fifo_num = i;
 8000fe0:	86d3      	strh	r3, [r2, #54]	; 0x36
    hpcd->IN_ep[i].type = EP_TYPE_CTRL;
 8000fe2:	70f8      	strb	r0, [r7, #3]
    hpcd->IN_ep[i].maxpacket = 0U;
 8000fe4:	6390      	str	r0, [r2, #56]	; 0x38
    hpcd->IN_ep[i].xfer_buff = 0U;
 8000fe6:	63d0      	str	r0, [r2, #60]	; 0x3c
    hpcd->IN_ep[i].xfer_len = 0U;
 8000fe8:	1c9a      	adds	r2, r3, #2
 8000fea:	0152      	lsls	r2, r2, #5
  for (i = 0U; i < hpcd->Init.dev_endpoints; i++)
 8000fec:	3301      	adds	r3, #1
    hpcd->IN_ep[i].xfer_len = 0U;
 8000fee:	5110      	str	r0, [r2, r4]
  for (i = 0U; i < hpcd->Init.dev_endpoints; i++)
 8000ff0:	b2db      	uxtb	r3, r3
 8000ff2:	e7cc      	b.n	8000f8e <HAL_PCD_Init+0x32>
    hpcd->OUT_ep[i].is_in = 0U;
 8000ff4:	015a      	lsls	r2, r3, #5
 8000ff6:	18a2      	adds	r2, r4, r2
 8000ff8:	0016      	movs	r6, r2
 8000ffa:	362a      	adds	r6, #42	; 0x2a
 8000ffc:	36ff      	adds	r6, #255	; 0xff
 8000ffe:	7030      	strb	r0, [r6, #0]
    hpcd->OUT_ep[i].maxpacket = 0U;
 8001000:	32fc      	adds	r2, #252	; 0xfc
    hpcd->OUT_ep[i].num = i;
 8001002:	3e01      	subs	r6, #1
 8001004:	7033      	strb	r3, [r6, #0]
    hpcd->OUT_ep[i].type = EP_TYPE_CTRL;
 8001006:	70f0      	strb	r0, [r6, #3]
    hpcd->OUT_ep[i].maxpacket = 0U;
 8001008:	63d0      	str	r0, [r2, #60]	; 0x3c
    hpcd->OUT_ep[i].xfer_buff = 0U;
 800100a:	6410      	str	r0, [r2, #64]	; 0x40
    hpcd->OUT_ep[i].xfer_len = 0U;
 800100c:	001a      	movs	r2, r3
 800100e:	320a      	adds	r2, #10
 8001010:	0152      	lsls	r2, r2, #5
  for (i = 0U; i < hpcd->Init.dev_endpoints; i++)
 8001012:	3301      	adds	r3, #1
    hpcd->OUT_ep[i].xfer_len = 0U;
 8001014:	5110      	str	r0, [r2, r4]
  for (i = 0U; i < hpcd->Init.dev_endpoints; i++)
 8001016:	b2db      	uxtb	r3, r3
 8001018:	e7bd      	b.n	8000f96 <HAL_PCD_Init+0x3a>
 800101a:	46c0      	nop			; (mov r8, r8)
 800101c:	00000229 	.word	0x00000229

08001020 <HAL_PCD_Start>:
  * @brief  Start the USB device
  * @param  hpcd PCD handle
  * @retval HAL status
  */
HAL_StatusTypeDef HAL_PCD_Start(PCD_HandleTypeDef *hpcd)
{
 8001020:	b570      	push	{r4, r5, r6, lr}
  __HAL_LOCK(hpcd);
 8001022:	258a      	movs	r5, #138	; 0x8a
 8001024:	00ad      	lsls	r5, r5, #2
 8001026:	5d43      	ldrb	r3, [r0, r5]
{
 8001028:	0004      	movs	r4, r0
  __HAL_LOCK(hpcd);
 800102a:	2002      	movs	r0, #2
 800102c:	2b01      	cmp	r3, #1
 800102e:	d009      	beq.n	8001044 <HAL_PCD_Start+0x24>
 8001030:	2301      	movs	r3, #1
  (void)USB_DevConnect(hpcd->Instance);
 8001032:	6820      	ldr	r0, [r4, #0]
  __HAL_LOCK(hpcd);
 8001034:	5563      	strb	r3, [r4, r5]
  (void)USB_DevConnect(hpcd->Instance);
 8001036:	f000 fe46 	bl	8001cc6 <USB_DevConnect>
  __HAL_PCD_ENABLE(hpcd);
 800103a:	6820      	ldr	r0, [r4, #0]
 800103c:	f000 fbda 	bl	80017f4 <USB_EnableGlobalInt>
  __HAL_UNLOCK(hpcd);
 8001040:	2000      	movs	r0, #0
 8001042:	5560      	strb	r0, [r4, r5]
  return HAL_OK;
}
 8001044:	bd70      	pop	{r4, r5, r6, pc}

08001046 <HAL_PCD_SetAddress>:
  * @param  hpcd PCD handle
  * @param  address new device address
  * @retval HAL status
  */
HAL_StatusTypeDef HAL_PCD_SetAddress(PCD_HandleTypeDef *hpcd, uint8_t address)
{
 8001046:	b570      	push	{r4, r5, r6, lr}
  __HAL_LOCK(hpcd);
 8001048:	258a      	movs	r5, #138	; 0x8a
 800104a:	00ad      	lsls	r5, r5, #2
 800104c:	5d43      	ldrb	r3, [r0, r5]
{
 800104e:	0004      	movs	r4, r0
  __HAL_LOCK(hpcd);
 8001050:	2002      	movs	r0, #2
 8001052:	2b01      	cmp	r3, #1
 8001054:	d008      	beq.n	8001068 <HAL_PCD_SetAddress+0x22>
 8001056:	2301      	movs	r3, #1
 8001058:	5563      	strb	r3, [r4, r5]
  hpcd->USB_Address = address;
 800105a:	1d63      	adds	r3, r4, #5
 800105c:	77d9      	strb	r1, [r3, #31]
  (void)USB_SetDevAddress(hpcd->Instance, address);
 800105e:	6820      	ldr	r0, [r4, #0]
 8001060:	f000 fe2a 	bl	8001cb8 <USB_SetDevAddress>
  __HAL_UNLOCK(hpcd);
 8001064:	2000      	movs	r0, #0
 8001066:	5560      	strb	r0, [r4, r5]
  return HAL_OK;
}
 8001068:	bd70      	pop	{r4, r5, r6, pc}

0800106a <HAL_PCD_EP_Open>:
  * @param  ep_mps endpoint max packet size
  * @param  ep_type endpoint type
  * @retval HAL status
  */
HAL_StatusTypeDef HAL_PCD_EP_Open(PCD_HandleTypeDef *hpcd, uint8_t ep_addr, uint16_t ep_mps, uint8_t ep_type)
{
 800106a:	b570      	push	{r4, r5, r6, lr}
 800106c:	2607      	movs	r6, #7
 800106e:	0004      	movs	r4, r0
 8001070:	400e      	ands	r6, r1
 8001072:	0170      	lsls	r0, r6, #5
  HAL_StatusTypeDef  ret = HAL_OK;
  PCD_EPTypeDef *ep;

  if ((ep_addr & 0x80U) == 0x80U)
 8001074:	b249      	sxtb	r1, r1
 8001076:	1825      	adds	r5, r4, r0
 8001078:	2900      	cmp	r1, #0
 800107a:	da1e      	bge.n	80010ba <HAL_PCD_EP_Open+0x50>
  {
    ep = &hpcd->IN_ep[ep_addr & EP_ADDR_MSK];
 800107c:	0001      	movs	r1, r0
    ep->is_in = 1U;
 800107e:	2001      	movs	r0, #1
    ep = &hpcd->IN_ep[ep_addr & EP_ADDR_MSK];
 8001080:	3128      	adds	r1, #40	; 0x28
 8001082:	1861      	adds	r1, r4, r1
    ep->is_in = 1U;
 8001084:	3529      	adds	r5, #41	; 0x29
  }
  else
  {
    ep = &hpcd->OUT_ep[ep_addr & EP_ADDR_MSK];
    ep->is_in = 0U;
 8001086:	7028      	strb	r0, [r5, #0]
  }

  ep->num = ep_addr & EP_ADDR_MSK;
  ep->maxpacket = ep_mps;
 8001088:	610a      	str	r2, [r1, #16]
  ep->type = ep_type;

  if (ep->is_in != 0U)
 800108a:	784a      	ldrb	r2, [r1, #1]
  ep->num = ep_addr & EP_ADDR_MSK;
 800108c:	700e      	strb	r6, [r1, #0]
  ep->type = ep_type;
 800108e:	70cb      	strb	r3, [r1, #3]
  if (ep->is_in != 0U)
 8001090:	2a00      	cmp	r2, #0
 8001092:	d000      	beq.n	8001096 <HAL_PCD_EP_Open+0x2c>
  {
    /* Assign a Tx FIFO */
    ep->tx_fifo_num = ep->num;
 8001094:	81ce      	strh	r6, [r1, #14]
  }
  /* Set initial data PID. */
  if (ep_type == EP_TYPE_BULK)
 8001096:	2b02      	cmp	r3, #2
 8001098:	d101      	bne.n	800109e <HAL_PCD_EP_Open+0x34>
  {
    ep->data_pid_start = 0U;
 800109a:	2300      	movs	r3, #0
 800109c:	710b      	strb	r3, [r1, #4]
  }

  __HAL_LOCK(hpcd);
 800109e:	258a      	movs	r5, #138	; 0x8a
 80010a0:	00ad      	lsls	r5, r5, #2
 80010a2:	5d63      	ldrb	r3, [r4, r5]
 80010a4:	2002      	movs	r0, #2
 80010a6:	2b01      	cmp	r3, #1
 80010a8:	d006      	beq.n	80010b8 <HAL_PCD_EP_Open+0x4e>
 80010aa:	2301      	movs	r3, #1
  (void)USB_ActivateEndpoint(hpcd->Instance, ep);
 80010ac:	6820      	ldr	r0, [r4, #0]
  __HAL_LOCK(hpcd);
 80010ae:	5563      	strb	r3, [r4, r5]
  (void)USB_ActivateEndpoint(hpcd->Instance, ep);
 80010b0:	f000 fbca 	bl	8001848 <USB_ActivateEndpoint>
  __HAL_UNLOCK(hpcd);
 80010b4:	2000      	movs	r0, #0
 80010b6:	5560      	strb	r0, [r4, r5]

  return ret;
}
 80010b8:	bd70      	pop	{r4, r5, r6, pc}
    ep = &hpcd->OUT_ep[ep_addr & EP_ADDR_MSK];
 80010ba:	0001      	movs	r1, r0
 80010bc:	3129      	adds	r1, #41	; 0x29
 80010be:	31ff      	adds	r1, #255	; 0xff
    ep->is_in = 0U;
 80010c0:	352a      	adds	r5, #42	; 0x2a
    ep = &hpcd->OUT_ep[ep_addr & EP_ADDR_MSK];
 80010c2:	1861      	adds	r1, r4, r1
    ep->is_in = 0U;
 80010c4:	35ff      	adds	r5, #255	; 0xff
 80010c6:	2000      	movs	r0, #0
 80010c8:	e7dd      	b.n	8001086 <HAL_PCD_EP_Open+0x1c>

080010ca <HAL_PCD_EP_Close>:
  * @param  hpcd PCD handle
  * @param  ep_addr endpoint address
  * @retval HAL status
  */
HAL_StatusTypeDef HAL_PCD_EP_Close(PCD_HandleTypeDef *hpcd, uint8_t ep_addr)
{
 80010ca:	b570      	push	{r4, r5, r6, lr}
 80010cc:	0004      	movs	r4, r0
 80010ce:	2007      	movs	r0, #7
 80010d0:	4008      	ands	r0, r1
 80010d2:	0143      	lsls	r3, r0, #5
  PCD_EPTypeDef *ep;

  if ((ep_addr & 0x80U) == 0x80U)
 80010d4:	b249      	sxtb	r1, r1
 80010d6:	18e2      	adds	r2, r4, r3
 80010d8:	2900      	cmp	r1, #0
 80010da:	da13      	bge.n	8001104 <HAL_PCD_EP_Close+0x3a>
  {
    ep = &hpcd->IN_ep[ep_addr & EP_ADDR_MSK];
 80010dc:	3328      	adds	r3, #40	; 0x28
 80010de:	18e1      	adds	r1, r4, r3
    ep->is_in = 1U;
 80010e0:	2301      	movs	r3, #1
 80010e2:	3229      	adds	r2, #41	; 0x29
    ep = &hpcd->OUT_ep[ep_addr & EP_ADDR_MSK];
    ep->is_in = 0U;
  }
  ep->num   = ep_addr & EP_ADDR_MSK;

  __HAL_LOCK(hpcd);
 80010e4:	258a      	movs	r5, #138	; 0x8a
    ep->is_in = 0U;
 80010e6:	7013      	strb	r3, [r2, #0]
  __HAL_LOCK(hpcd);
 80010e8:	00ad      	lsls	r5, r5, #2
  ep->num   = ep_addr & EP_ADDR_MSK;
 80010ea:	7008      	strb	r0, [r1, #0]
  __HAL_LOCK(hpcd);
 80010ec:	5d63      	ldrb	r3, [r4, r5]
 80010ee:	2002      	movs	r0, #2
 80010f0:	2b01      	cmp	r3, #1
 80010f2:	d006      	beq.n	8001102 <HAL_PCD_EP_Close+0x38>
 80010f4:	2301      	movs	r3, #1
  (void)USB_DeactivateEndpoint(hpcd->Instance, ep);
 80010f6:	6820      	ldr	r0, [r4, #0]
  __HAL_LOCK(hpcd);
 80010f8:	5563      	strb	r3, [r4, r5]
  (void)USB_DeactivateEndpoint(hpcd->Instance, ep);
 80010fa:	f000 fce7 	bl	8001acc <USB_DeactivateEndpoint>
  __HAL_UNLOCK(hpcd);
 80010fe:	2000      	movs	r0, #0
 8001100:	5560      	strb	r0, [r4, r5]
  return HAL_OK;
}
 8001102:	bd70      	pop	{r4, r5, r6, pc}
    ep = &hpcd->OUT_ep[ep_addr & EP_ADDR_MSK];
 8001104:	3329      	adds	r3, #41	; 0x29
 8001106:	33ff      	adds	r3, #255	; 0xff
    ep->is_in = 0U;
 8001108:	322a      	adds	r2, #42	; 0x2a
    ep = &hpcd->OUT_ep[ep_addr & EP_ADDR_MSK];
 800110a:	18e1      	adds	r1, r4, r3
    ep->is_in = 0U;
 800110c:	32ff      	adds	r2, #255	; 0xff
 800110e:	2300      	movs	r3, #0
 8001110:	e7e8      	b.n	80010e4 <HAL_PCD_EP_Close+0x1a>

08001112 <HAL_PCD_EP_Receive>:
  * @param  pBuf pointer to the reception buffer
  * @param  len amount of data to be received
  * @retval HAL status
  */
HAL_StatusTypeDef HAL_PCD_EP_Receive(PCD_HandleTypeDef *hpcd, uint8_t ep_addr, uint8_t *pBuf, uint32_t len)
{
 8001112:	b5f8      	push	{r3, r4, r5, r6, r7, lr}
 8001114:	2407      	movs	r4, #7
 8001116:	4021      	ands	r1, r4
 8001118:	014c      	lsls	r4, r1, #5
  PCD_EPTypeDef *ep;

  ep = &hpcd->OUT_ep[ep_addr & EP_ADDR_MSK];

  /*setup and start the Xfer */
  ep->xfer_buff = pBuf;
 800111a:	1906      	adds	r6, r0, r4
 800111c:	0037      	movs	r7, r6
 800111e:	37fc      	adds	r7, #252	; 0xfc
  ep->xfer_len = len;
 8001120:	647b      	str	r3, [r7, #68]	; 0x44
  ep->xfer_count = 0U;
  ep->is_in = 0U;
 8001122:	0033      	movs	r3, r6
  ep->xfer_count = 0U;
 8001124:	2500      	movs	r5, #0
  ep->is_in = 0U;
 8001126:	332a      	adds	r3, #42	; 0x2a
  ep->num = ep_addr & EP_ADDR_MSK;
 8001128:	3629      	adds	r6, #41	; 0x29
  ep->is_in = 0U;
 800112a:	33ff      	adds	r3, #255	; 0xff
  ep->num = ep_addr & EP_ADDR_MSK;
 800112c:	36ff      	adds	r6, #255	; 0xff
  ep->xfer_count = 0U;
 800112e:	64bd      	str	r5, [r7, #72]	; 0x48
  ep->xfer_buff = pBuf;
 8001130:	643a      	str	r2, [r7, #64]	; 0x40
  ep->is_in = 0U;
 8001132:	701d      	strb	r5, [r3, #0]
  ep->num = ep_addr & EP_ADDR_MSK;
 8001134:	7031      	strb	r1, [r6, #0]
  ep = &hpcd->OUT_ep[ep_addr & EP_ADDR_MSK];
 8001136:	0021      	movs	r1, r4
 8001138:	3129      	adds	r1, #41	; 0x29
 800113a:	31ff      	adds	r1, #255	; 0xff
 800113c:	1841      	adds	r1, r0, r1
  {
    (void)USB_EP0StartXfer(hpcd->Instance, ep);
  }
  else
  {
    (void)USB_EPStartXfer(hpcd->Instance, ep);
 800113e:	6800      	ldr	r0, [r0, #0]
 8001140:	f000 fde4 	bl	8001d0c <USB_EPStartXfer>
  }

  return HAL_OK;
}
 8001144:	0028      	movs	r0, r5
 8001146:	bdf8      	pop	{r3, r4, r5, r6, r7, pc}

08001148 <HAL_PCD_EP_GetRxCount>:
  * @param  ep_addr endpoint address
  * @retval Data Size
  */
uint32_t HAL_PCD_EP_GetRxCount(PCD_HandleTypeDef *hpcd, uint8_t ep_addr)
{
  return hpcd->OUT_ep[ep_addr & EP_ADDR_MSK].xfer_count;
 8001148:	2307      	movs	r3, #7
 800114a:	4019      	ands	r1, r3
 800114c:	310a      	adds	r1, #10
 800114e:	0149      	lsls	r1, r1, #5
 8001150:	1840      	adds	r0, r0, r1
 8001152:	6840      	ldr	r0, [r0, #4]
}
 8001154:	4770      	bx	lr

08001156 <HAL_PCD_EP_Transmit>:
  * @param  pBuf pointer to the transmission buffer
  * @param  len amount of data to be sent
  * @retval HAL status
  */
HAL_StatusTypeDef HAL_PCD_EP_Transmit(PCD_HandleTypeDef *hpcd, uint8_t ep_addr, uint8_t *pBuf, uint32_t len)
{
 8001156:	b570      	push	{r4, r5, r6, lr}
 8001158:	2407      	movs	r4, #7
 800115a:	4021      	ands	r1, r4
 800115c:	014d      	lsls	r5, r1, #5
  PCD_EPTypeDef *ep;

  ep = &hpcd->IN_ep[ep_addr & EP_ADDR_MSK];

  /*setup and start the Xfer */
  ep->xfer_buff = pBuf;
 800115e:	1944      	adds	r4, r0, r5
  ep->xfer_len = len;
 8001160:	6423      	str	r3, [r4, #64]	; 0x40
  ep->xfer_count = 0U;
 8001162:	2600      	movs	r6, #0
  ep->is_in = 1U;
 8001164:	0023      	movs	r3, r4
  ep->xfer_buff = pBuf;
 8001166:	63e2      	str	r2, [r4, #60]	; 0x3c
  ep->is_in = 1U;
 8001168:	2201      	movs	r2, #1
  ep->xfer_count = 0U;
 800116a:	6466      	str	r6, [r4, #68]	; 0x44
  ep->is_in = 1U;
 800116c:	3329      	adds	r3, #41	; 0x29
  ep->num = ep_addr & EP_ADDR_MSK;
 800116e:	3428      	adds	r4, #40	; 0x28
  ep->is_in = 1U;
 8001170:	701a      	strb	r2, [r3, #0]
  ep->num = ep_addr & EP_ADDR_MSK;
 8001172:	7021      	strb	r1, [r4, #0]
  ep = &hpcd->IN_ep[ep_addr & EP_ADDR_MSK];
 8001174:	0029      	movs	r1, r5
 8001176:	3128      	adds	r1, #40	; 0x28
 8001178:	1841      	adds	r1, r0, r1
  {
    (void)USB_EP0StartXfer(hpcd->Instance, ep);
  }
  else
  {
    (void)USB_EPStartXfer(hpcd->Instance, ep);
 800117a:	6800      	ldr	r0, [r0, #0]
 800117c:	f000 fdc6 	bl	8001d0c <USB_EPStartXfer>
  }

  return HAL_OK;
}
 8001180:	0030      	movs	r0, r6
 8001182:	bd70      	pop	{r4, r5, r6, pc}

08001184 <HAL_PCD_IRQHandler>:
{
 8001184:	b5f7      	push	{r0, r1, r2, r4, r5, r6, r7, lr}
 8001186:	0004      	movs	r4, r0
  if (__HAL_PCD_GET_FLAG(hpcd, USB_ISTR_CTR))
 8001188:	6800      	ldr	r0, [r0, #0]
 800118a:	f000 fda4 	bl	8001cd6 <USB_ReadInterrupts>
          (void)HAL_PCD_EP_Receive(hpcd, ep->num, ep->xfer_buff, ep->xfer_len);
        }

      } /* if((wEPVal & EP_CTR_RX) */

      if ((wEPVal & USB_EP_CTR_TX) != 0U)
 800118e:	2780      	movs	r7, #128	; 0x80
  if (__HAL_PCD_GET_FLAG(hpcd, USB_ISTR_CTR))
 8001190:	0403      	lsls	r3, r0, #16
 8001192:	d500      	bpl.n	8001196 <HAL_PCD_IRQHandler+0x12>
 8001194:	e0d9      	b.n	800134a <HAL_PCD_IRQHandler+0x1c6>
  if (__HAL_PCD_GET_FLAG(hpcd, USB_ISTR_RESET))
 8001196:	6820      	ldr	r0, [r4, #0]
 8001198:	f000 fd9d 	bl	8001cd6 <USB_ReadInterrupts>
 800119c:	0543      	lsls	r3, r0, #21
 800119e:	d50c      	bpl.n	80011ba <HAL_PCD_IRQHandler+0x36>
    __HAL_PCD_CLEAR_FLAG(hpcd, USB_ISTR_RESET);
 80011a0:	6823      	ldr	r3, [r4, #0]
 80011a2:	49ac      	ldr	r1, [pc, #688]	; (8001454 <HAL_PCD_IRQHandler+0x2d0>)
 80011a4:	3306      	adds	r3, #6
 80011a6:	8fda      	ldrh	r2, [r3, #62]	; 0x3e
    HAL_PCD_ResetCallback(hpcd);
 80011a8:	0020      	movs	r0, r4
    __HAL_PCD_CLEAR_FLAG(hpcd, USB_ISTR_RESET);
 80011aa:	400a      	ands	r2, r1
 80011ac:	87da      	strh	r2, [r3, #62]	; 0x3e
    HAL_PCD_ResetCallback(hpcd);
 80011ae:	f001 fd78 	bl	8002ca2 <HAL_PCD_ResetCallback>
    (void)HAL_PCD_SetAddress(hpcd, 0U);
 80011b2:	2100      	movs	r1, #0
 80011b4:	0020      	movs	r0, r4
 80011b6:	f7ff ff46 	bl	8001046 <HAL_PCD_SetAddress>
  if (__HAL_PCD_GET_FLAG(hpcd, USB_ISTR_PMAOVR))
 80011ba:	6820      	ldr	r0, [r4, #0]
 80011bc:	f000 fd8b 	bl	8001cd6 <USB_ReadInterrupts>
 80011c0:	0443      	lsls	r3, r0, #17
 80011c2:	d505      	bpl.n	80011d0 <HAL_PCD_IRQHandler+0x4c>
    __HAL_PCD_CLEAR_FLAG(hpcd, USB_ISTR_PMAOVR);
 80011c4:	6823      	ldr	r3, [r4, #0]
 80011c6:	49a4      	ldr	r1, [pc, #656]	; (8001458 <HAL_PCD_IRQHandler+0x2d4>)
 80011c8:	3306      	adds	r3, #6
 80011ca:	8fda      	ldrh	r2, [r3, #62]	; 0x3e
 80011cc:	400a      	ands	r2, r1
 80011ce:	87da      	strh	r2, [r3, #62]	; 0x3e
  if (__HAL_PCD_GET_FLAG(hpcd, USB_ISTR_ERR))
 80011d0:	6820      	ldr	r0, [r4, #0]
 80011d2:	f000 fd80 	bl	8001cd6 <USB_ReadInterrupts>
 80011d6:	0483      	lsls	r3, r0, #18
 80011d8:	d505      	bpl.n	80011e6 <HAL_PCD_IRQHandler+0x62>
    __HAL_PCD_CLEAR_FLAG(hpcd, USB_ISTR_ERR);
 80011da:	6823      	ldr	r3, [r4, #0]
 80011dc:	499f      	ldr	r1, [pc, #636]	; (800145c <HAL_PCD_IRQHandler+0x2d8>)
 80011de:	3306      	adds	r3, #6
 80011e0:	8fda      	ldrh	r2, [r3, #62]	; 0x3e
 80011e2:	400a      	ands	r2, r1
 80011e4:	87da      	strh	r2, [r3, #62]	; 0x3e
  if (__HAL_PCD_GET_FLAG(hpcd, USB_ISTR_WKUP))
 80011e6:	6820      	ldr	r0, [r4, #0]
 80011e8:	f000 fd75 	bl	8001cd6 <USB_ReadInterrupts>
 80011ec:	04c3      	lsls	r3, r0, #19
 80011ee:	d51c      	bpl.n	800122a <HAL_PCD_IRQHandler+0xa6>
    hpcd->Instance->CNTR &= (uint16_t) ~(USB_CNTR_LPMODE);
 80011f0:	2104      	movs	r1, #4
 80011f2:	6823      	ldr	r3, [r4, #0]
 80011f4:	3302      	adds	r3, #2
 80011f6:	8fda      	ldrh	r2, [r3, #62]	; 0x3e
 80011f8:	438a      	bics	r2, r1
 80011fa:	87da      	strh	r2, [r3, #62]	; 0x3e
    hpcd->Instance->CNTR &= (uint16_t) ~(USB_CNTR_FSUSP);
 80011fc:	8fda      	ldrh	r2, [r3, #62]	; 0x3e
 80011fe:	1849      	adds	r1, r1, r1
 8001200:	438a      	bics	r2, r1
 8001202:	87da      	strh	r2, [r3, #62]	; 0x3e
    if (hpcd->LPM_State == LPM_L1)
 8001204:	2398      	movs	r3, #152	; 0x98
 8001206:	009b      	lsls	r3, r3, #2
 8001208:	5ce2      	ldrb	r2, [r4, r3]
 800120a:	2a01      	cmp	r2, #1
 800120c:	d104      	bne.n	8001218 <HAL_PCD_IRQHandler+0x94>
      hpcd->LPM_State = LPM_L0;
 800120e:	2100      	movs	r1, #0
      HAL_PCDEx_LPM_Callback(hpcd, PCD_LPM_L0_ACTIVE);
 8001210:	0020      	movs	r0, r4
      hpcd->LPM_State = LPM_L0;
 8001212:	54e1      	strb	r1, [r4, r3]
      HAL_PCDEx_LPM_Callback(hpcd, PCD_LPM_L0_ACTIVE);
 8001214:	f000 fa90 	bl	8001738 <HAL_PCDEx_LPM_Callback>
    HAL_PCD_ResumeCallback(hpcd);
 8001218:	0020      	movs	r0, r4
 800121a:	f001 fd65 	bl	8002ce8 <HAL_PCD_ResumeCallback>
    __HAL_PCD_CLEAR_FLAG(hpcd, USB_ISTR_WKUP);
 800121e:	6823      	ldr	r3, [r4, #0]
 8001220:	498f      	ldr	r1, [pc, #572]	; (8001460 <HAL_PCD_IRQHandler+0x2dc>)
 8001222:	3306      	adds	r3, #6
 8001224:	8fda      	ldrh	r2, [r3, #62]	; 0x3e
 8001226:	400a      	ands	r2, r1
 8001228:	87da      	strh	r2, [r3, #62]	; 0x3e
  if (__HAL_PCD_GET_FLAG(hpcd, USB_ISTR_SUSP))
 800122a:	6820      	ldr	r0, [r4, #0]
 800122c:	f000 fd53 	bl	8001cd6 <USB_ReadInterrupts>
 8001230:	0503      	lsls	r3, r0, #20
 8001232:	d515      	bpl.n	8001260 <HAL_PCD_IRQHandler+0xdc>
    hpcd->Instance->CNTR |= USB_CNTR_FSUSP;
 8001234:	2208      	movs	r2, #8
 8001236:	6820      	ldr	r0, [r4, #0]
    __HAL_PCD_CLEAR_FLAG(hpcd, USB_ISTR_SUSP);
 8001238:	4d8a      	ldr	r5, [pc, #552]	; (8001464 <HAL_PCD_IRQHandler+0x2e0>)
    hpcd->Instance->CNTR |= USB_CNTR_FSUSP;
 800123a:	1c83      	adds	r3, r0, #2
 800123c:	8fd9      	ldrh	r1, [r3, #62]	; 0x3e
 800123e:	430a      	orrs	r2, r1
 8001240:	87da      	strh	r2, [r3, #62]	; 0x3e
    __HAL_PCD_CLEAR_FLAG(hpcd, USB_ISTR_SUSP);
 8001242:	1d81      	adds	r1, r0, #6
 8001244:	8fca      	ldrh	r2, [r1, #62]	; 0x3e
 8001246:	402a      	ands	r2, r5
 8001248:	87ca      	strh	r2, [r1, #62]	; 0x3e
    hpcd->Instance->CNTR |= USB_CNTR_LPMODE;
 800124a:	2204      	movs	r2, #4
 800124c:	8fd9      	ldrh	r1, [r3, #62]	; 0x3e
 800124e:	430a      	orrs	r2, r1
 8001250:	87da      	strh	r2, [r3, #62]	; 0x3e
    if (__HAL_PCD_GET_FLAG(hpcd, USB_ISTR_WKUP) == 0U)
 8001252:	f000 fd40 	bl	8001cd6 <USB_ReadInterrupts>
 8001256:	04c3      	lsls	r3, r0, #19
 8001258:	d402      	bmi.n	8001260 <HAL_PCD_IRQHandler+0xdc>
      HAL_PCD_SuspendCallback(hpcd);
 800125a:	0020      	movs	r0, r4
 800125c:	f001 fd32 	bl	8002cc4 <HAL_PCD_SuspendCallback>
  if (__HAL_PCD_GET_FLAG(hpcd, USB_ISTR_L1REQ))
 8001260:	6820      	ldr	r0, [r4, #0]
 8001262:	f000 fd38 	bl	8001cd6 <USB_ReadInterrupts>
 8001266:	2580      	movs	r5, #128	; 0x80
 8001268:	4228      	tst	r0, r5
 800126a:	d020      	beq.n	80012ae <HAL_PCD_IRQHandler+0x12a>
    if (hpcd->LPM_State == LPM_L0)
 800126c:	2098      	movs	r0, #152	; 0x98
    __HAL_PCD_CLEAR_FLAG(hpcd, USB_ISTR_L1REQ);
 800126e:	6823      	ldr	r3, [r4, #0]
    if (hpcd->LPM_State == LPM_L0)
 8001270:	0080      	lsls	r0, r0, #2
    __HAL_PCD_CLEAR_FLAG(hpcd, USB_ISTR_L1REQ);
 8001272:	1d99      	adds	r1, r3, #6
 8001274:	8fca      	ldrh	r2, [r1, #62]	; 0x3e
 8001276:	43aa      	bics	r2, r5
 8001278:	87ca      	strh	r2, [r1, #62]	; 0x3e
    if (hpcd->LPM_State == LPM_L0)
 800127a:	5c22      	ldrb	r2, [r4, r0]
 800127c:	2a00      	cmp	r2, #0
 800127e:	d000      	beq.n	8001282 <HAL_PCD_IRQHandler+0xfe>
 8001280:	e1bb      	b.n	80015fa <HAL_PCD_IRQHandler+0x476>
      hpcd->Instance->CNTR |= USB_CNTR_LPMODE;
 8001282:	2104      	movs	r1, #4
 8001284:	1c9a      	adds	r2, r3, #2
 8001286:	8fd5      	ldrh	r5, [r2, #62]	; 0x3e
      hpcd->BESL = ((uint32_t)hpcd->Instance->LPMCSR & USB_LPMCSR_BESL) >> 2;
 8001288:	3354      	adds	r3, #84	; 0x54
      hpcd->Instance->CNTR |= USB_CNTR_LPMODE;
 800128a:	4329      	orrs	r1, r5
 800128c:	87d1      	strh	r1, [r2, #62]	; 0x3e
      hpcd->Instance->CNTR |= USB_CNTR_FSUSP;
 800128e:	2108      	movs	r1, #8
 8001290:	8fd5      	ldrh	r5, [r2, #62]	; 0x3e
 8001292:	4329      	orrs	r1, r5
 8001294:	87d1      	strh	r1, [r2, #62]	; 0x3e
      hpcd->LPM_State = LPM_L1;
 8001296:	2101      	movs	r1, #1
      hpcd->BESL = ((uint32_t)hpcd->Instance->LPMCSR & USB_LPMCSR_BESL) >> 2;
 8001298:	223c      	movs	r2, #60	; 0x3c
      hpcd->LPM_State = LPM_L1;
 800129a:	5421      	strb	r1, [r4, r0]
      hpcd->BESL = ((uint32_t)hpcd->Instance->LPMCSR & USB_LPMCSR_BESL) >> 2;
 800129c:	881b      	ldrh	r3, [r3, #0]
      HAL_PCDEx_LPM_Callback(hpcd, PCD_LPM_L1_ACTIVE);
 800129e:	0020      	movs	r0, r4
      hpcd->BESL = ((uint32_t)hpcd->Instance->LPMCSR & USB_LPMCSR_BESL) >> 2;
 80012a0:	089b      	lsrs	r3, r3, #2
 80012a2:	4013      	ands	r3, r2
 80012a4:	2299      	movs	r2, #153	; 0x99
 80012a6:	0092      	lsls	r2, r2, #2
 80012a8:	50a3      	str	r3, [r4, r2]
      HAL_PCDEx_LPM_Callback(hpcd, PCD_LPM_L1_ACTIVE);
 80012aa:	f000 fa45 	bl	8001738 <HAL_PCDEx_LPM_Callback>
  if (__HAL_PCD_GET_FLAG(hpcd, USB_ISTR_SOF))
 80012ae:	6820      	ldr	r0, [r4, #0]
 80012b0:	f000 fd11 	bl	8001cd6 <USB_ReadInterrupts>
 80012b4:	0583      	lsls	r3, r0, #22
 80012b6:	d508      	bpl.n	80012ca <HAL_PCD_IRQHandler+0x146>
    __HAL_PCD_CLEAR_FLAG(hpcd, USB_ISTR_SOF);
 80012b8:	6823      	ldr	r3, [r4, #0]
 80012ba:	496b      	ldr	r1, [pc, #428]	; (8001468 <HAL_PCD_IRQHandler+0x2e4>)
 80012bc:	3306      	adds	r3, #6
 80012be:	8fda      	ldrh	r2, [r3, #62]	; 0x3e
    HAL_PCD_SOFCallback(hpcd);
 80012c0:	0020      	movs	r0, r4
    __HAL_PCD_CLEAR_FLAG(hpcd, USB_ISTR_SOF);
 80012c2:	400a      	ands	r2, r1
 80012c4:	87da      	strh	r2, [r3, #62]	; 0x3e
    HAL_PCD_SOFCallback(hpcd);
 80012c6:	f001 fce5 	bl	8002c94 <HAL_PCD_SOFCallback>
  if (__HAL_PCD_GET_FLAG(hpcd, USB_ISTR_ESOF))
 80012ca:	6820      	ldr	r0, [r4, #0]
 80012cc:	f000 fd03 	bl	8001cd6 <USB_ReadInterrupts>
 80012d0:	05c3      	lsls	r3, r0, #23
 80012d2:	d505      	bpl.n	80012e0 <HAL_PCD_IRQHandler+0x15c>
    __HAL_PCD_CLEAR_FLAG(hpcd, USB_ISTR_ESOF);
 80012d4:	6823      	ldr	r3, [r4, #0]
 80012d6:	4965      	ldr	r1, [pc, #404]	; (800146c <HAL_PCD_IRQHandler+0x2e8>)
 80012d8:	3306      	adds	r3, #6
 80012da:	8fda      	ldrh	r2, [r3, #62]	; 0x3e
 80012dc:	400a      	ands	r2, r1
 80012de:	87da      	strh	r2, [r3, #62]	; 0x3e
}
 80012e0:	bdf7      	pop	{r0, r1, r2, r4, r5, r6, r7, pc}
    epindex = (uint8_t)(wIstr & USB_ISTR_EP_ID);
 80012e2:	260f      	movs	r6, #15
    wIstr = hpcd->Instance->ISTR;
 80012e4:	8fd1      	ldrh	r1, [r2, #62]	; 0x3e
 80012e6:	b289      	uxth	r1, r1
    epindex = (uint8_t)(wIstr & USB_ISTR_EP_ID);
 80012e8:	400e      	ands	r6, r1
    if (epindex == 0U)
 80012ea:	d000      	beq.n	80012ee <HAL_PCD_IRQHandler+0x16a>
 80012ec:	e0d0      	b.n	8001490 <HAL_PCD_IRQHandler+0x30c>
      if ((wIstr & USB_ISTR_DIR) == 0U)
 80012ee:	2310      	movs	r3, #16
 80012f0:	4019      	ands	r1, r3
        PCD_CLEAR_TX_EP_CTR(hpcd->Instance, PCD_ENDP0);
 80012f2:	8803      	ldrh	r3, [r0, #0]
      if ((wIstr & USB_ISTR_DIR) == 0U)
 80012f4:	2900      	cmp	r1, #0
 80012f6:	d12f      	bne.n	8001358 <HAL_PCD_IRQHandler+0x1d4>
        PCD_CLEAR_TX_EP_CTR(hpcd->Instance, PCD_ENDP0);
 80012f8:	4a5d      	ldr	r2, [pc, #372]	; (8001470 <HAL_PCD_IRQHandler+0x2ec>)
 80012fa:	4013      	ands	r3, r2
 80012fc:	2280      	movs	r2, #128	; 0x80
 80012fe:	0212      	lsls	r2, r2, #8
 8001300:	4313      	orrs	r3, r2
 8001302:	8003      	strh	r3, [r0, #0]
        ep->xfer_count = PCD_GET_EP_TX_CNT(hpcd->Instance, ep->num);
 8001304:	0003      	movs	r3, r0
 8001306:	3350      	adds	r3, #80	; 0x50
 8001308:	881a      	ldrh	r2, [r3, #0]
 800130a:	0023      	movs	r3, r4
 800130c:	3328      	adds	r3, #40	; 0x28
 800130e:	781b      	ldrb	r3, [r3, #0]
 8001310:	00db      	lsls	r3, r3, #3
 8001312:	18c0      	adds	r0, r0, r3
 8001314:	4b57      	ldr	r3, [pc, #348]	; (8001474 <HAL_PCD_IRQHandler+0x2f0>)
 8001316:	1880      	adds	r0, r0, r2
 8001318:	18c0      	adds	r0, r0, r3
 800131a:	8803      	ldrh	r3, [r0, #0]
        ep->xfer_buff += ep->xfer_count;
 800131c:	6be2      	ldr	r2, [r4, #60]	; 0x3c
        ep->xfer_count = PCD_GET_EP_TX_CNT(hpcd->Instance, ep->num);
 800131e:	059b      	lsls	r3, r3, #22
 8001320:	0d9b      	lsrs	r3, r3, #22
 8001322:	6463      	str	r3, [r4, #68]	; 0x44
        ep->xfer_buff += ep->xfer_count;
 8001324:	18d3      	adds	r3, r2, r3
 8001326:	63e3      	str	r3, [r4, #60]	; 0x3c
        HAL_PCD_DataInStageCallback(hpcd, 0U);
 8001328:	0020      	movs	r0, r4
 800132a:	f001 fca9 	bl	8002c80 <HAL_PCD_DataInStageCallback>
        if ((hpcd->USB_Address > 0U) && (ep->xfer_len == 0U))
 800132e:	1d63      	adds	r3, r4, #5
 8001330:	7fda      	ldrb	r2, [r3, #31]
 8001332:	2a00      	cmp	r2, #0
 8001334:	d009      	beq.n	800134a <HAL_PCD_IRQHandler+0x1c6>
 8001336:	6c20      	ldr	r0, [r4, #64]	; 0x40
 8001338:	2800      	cmp	r0, #0
 800133a:	d106      	bne.n	800134a <HAL_PCD_IRQHandler+0x1c6>
          hpcd->Instance->DADDR = ((uint16_t)hpcd->USB_Address | USB_DADDR_EF);
 800133c:	2280      	movs	r2, #128	; 0x80
 800133e:	7fd9      	ldrb	r1, [r3, #31]
 8001340:	4311      	orrs	r1, r2
 8001342:	6822      	ldr	r2, [r4, #0]
 8001344:	324c      	adds	r2, #76	; 0x4c
 8001346:	8011      	strh	r1, [r2, #0]
          hpcd->USB_Address = 0U;
 8001348:	77d8      	strb	r0, [r3, #31]
  while ((hpcd->Instance->ISTR & USB_ISTR_CTR) != 0U)
 800134a:	6820      	ldr	r0, [r4, #0]
 800134c:	1d82      	adds	r2, r0, #6
 800134e:	8fd3      	ldrh	r3, [r2, #62]	; 0x3e
 8001350:	b21b      	sxth	r3, r3
 8001352:	2b00      	cmp	r3, #0
 8001354:	dbc5      	blt.n	80012e2 <HAL_PCD_IRQHandler+0x15e>
 8001356:	e71e      	b.n	8001196 <HAL_PCD_IRQHandler+0x12>
        if ((wEPVal & USB_EP_SETUP) != 0U)
 8001358:	2680      	movs	r6, #128	; 0x80
        wEPVal = PCD_GET_ENDPOINT(hpcd->Instance, PCD_ENDP0);
 800135a:	b29b      	uxth	r3, r3
        if ((wEPVal & USB_EP_SETUP) != 0U)
 800135c:	0136      	lsls	r6, r6, #4
 800135e:	401e      	ands	r6, r3
 8001360:	d021      	beq.n	80013a6 <HAL_PCD_IRQHandler+0x222>
          ep->xfer_count = PCD_GET_EP_RX_CNT(hpcd->Instance, ep->num);
 8001362:	0003      	movs	r3, r0
 8001364:	3350      	adds	r3, #80	; 0x50
 8001366:	881a      	ldrh	r2, [r3, #0]
 8001368:	2394      	movs	r3, #148	; 0x94
 800136a:	005b      	lsls	r3, r3, #1
 800136c:	5ce3      	ldrb	r3, [r4, r3]
          USB_ReadPMA(hpcd->Instance, (uint8_t *)hpcd->Setup,
 800136e:	218c      	movs	r1, #140	; 0x8c
          ep->xfer_count = PCD_GET_EP_RX_CNT(hpcd->Instance, ep->num);
 8001370:	00db      	lsls	r3, r3, #3
 8001372:	18c3      	adds	r3, r0, r3
 8001374:	189b      	adds	r3, r3, r2
 8001376:	4a40      	ldr	r2, [pc, #256]	; (8001478 <HAL_PCD_IRQHandler+0x2f4>)
          USB_ReadPMA(hpcd->Instance, (uint8_t *)hpcd->Setup,
 8001378:	0089      	lsls	r1, r1, #2
          ep->xfer_count = PCD_GET_EP_RX_CNT(hpcd->Instance, ep->num);
 800137a:	189b      	adds	r3, r3, r2
 800137c:	0022      	movs	r2, r4
 800137e:	881b      	ldrh	r3, [r3, #0]
 8001380:	3229      	adds	r2, #41	; 0x29
 8001382:	059b      	lsls	r3, r3, #22
 8001384:	0d9b      	lsrs	r3, r3, #22
 8001386:	32ff      	adds	r2, #255	; 0xff
 8001388:	61d3      	str	r3, [r2, #28]
          USB_ReadPMA(hpcd->Instance, (uint8_t *)hpcd->Setup,
 800138a:	1861      	adds	r1, r4, r1
 800138c:	88d2      	ldrh	r2, [r2, #6]
 800138e:	f000 fda5 	bl	8001edc <USB_ReadPMA>
          PCD_CLEAR_RX_EP_CTR(hpcd->Instance, PCD_ENDP0);
 8001392:	6822      	ldr	r2, [r4, #0]
 8001394:	4939      	ldr	r1, [pc, #228]	; (800147c <HAL_PCD_IRQHandler+0x2f8>)
 8001396:	8813      	ldrh	r3, [r2, #0]
          HAL_PCD_SetupStageCallback(hpcd);
 8001398:	0020      	movs	r0, r4
          PCD_CLEAR_RX_EP_CTR(hpcd->Instance, PCD_ENDP0);
 800139a:	400b      	ands	r3, r1
 800139c:	433b      	orrs	r3, r7
 800139e:	8013      	strh	r3, [r2, #0]
          HAL_PCD_SetupStageCallback(hpcd);
 80013a0:	f001 fc5a 	bl	8002c58 <HAL_PCD_SetupStageCallback>
 80013a4:	e7d1      	b.n	800134a <HAL_PCD_IRQHandler+0x1c6>
        else if ((wEPVal & USB_EP_CTR_RX) != 0U)
 80013a6:	b21b      	sxth	r3, r3
 80013a8:	2b00      	cmp	r3, #0
 80013aa:	dace      	bge.n	800134a <HAL_PCD_IRQHandler+0x1c6>
          PCD_CLEAR_RX_EP_CTR(hpcd->Instance, PCD_ENDP0);
 80013ac:	8803      	ldrh	r3, [r0, #0]
 80013ae:	4a33      	ldr	r2, [pc, #204]	; (800147c <HAL_PCD_IRQHandler+0x2f8>)
          ep->xfer_count = PCD_GET_EP_RX_CNT(hpcd->Instance, ep->num);
 80013b0:	0025      	movs	r5, r4
          PCD_CLEAR_RX_EP_CTR(hpcd->Instance, PCD_ENDP0);
 80013b2:	4013      	ands	r3, r2
 80013b4:	433b      	orrs	r3, r7
 80013b6:	8003      	strh	r3, [r0, #0]
          ep->xfer_count = PCD_GET_EP_RX_CNT(hpcd->Instance, ep->num);
 80013b8:	0003      	movs	r3, r0
 80013ba:	3350      	adds	r3, #80	; 0x50
 80013bc:	881a      	ldrh	r2, [r3, #0]
 80013be:	2394      	movs	r3, #148	; 0x94
 80013c0:	005b      	lsls	r3, r3, #1
 80013c2:	5ce3      	ldrb	r3, [r4, r3]
 80013c4:	3529      	adds	r5, #41	; 0x29
 80013c6:	00db      	lsls	r3, r3, #3
 80013c8:	18c3      	adds	r3, r0, r3
 80013ca:	189b      	adds	r3, r3, r2
 80013cc:	4a2a      	ldr	r2, [pc, #168]	; (8001478 <HAL_PCD_IRQHandler+0x2f4>)
 80013ce:	35ff      	adds	r5, #255	; 0xff
 80013d0:	189b      	adds	r3, r3, r2
 80013d2:	881b      	ldrh	r3, [r3, #0]
 80013d4:	059b      	lsls	r3, r3, #22
 80013d6:	0d9b      	lsrs	r3, r3, #22
 80013d8:	61eb      	str	r3, [r5, #28]
          if ((ep->xfer_count != 0U) && (ep->xfer_buff != 0U))
 80013da:	d00d      	beq.n	80013f8 <HAL_PCD_IRQHandler+0x274>
 80013dc:	6969      	ldr	r1, [r5, #20]
 80013de:	2900      	cmp	r1, #0
 80013e0:	d00a      	beq.n	80013f8 <HAL_PCD_IRQHandler+0x274>
            USB_ReadPMA(hpcd->Instance, ep->xfer_buff,
 80013e2:	88ea      	ldrh	r2, [r5, #6]
 80013e4:	f000 fd7a 	bl	8001edc <USB_ReadPMA>
            ep->xfer_buff += ep->xfer_count;
 80013e8:	696b      	ldr	r3, [r5, #20]
 80013ea:	69ea      	ldr	r2, [r5, #28]
            HAL_PCD_DataOutStageCallback(hpcd, 0U);
 80013ec:	0031      	movs	r1, r6
            ep->xfer_buff += ep->xfer_count;
 80013ee:	189b      	adds	r3, r3, r2
 80013f0:	616b      	str	r3, [r5, #20]
            HAL_PCD_DataOutStageCallback(hpcd, 0U);
 80013f2:	0020      	movs	r0, r4
 80013f4:	f001 fc39 	bl	8002c6a <HAL_PCD_DataOutStageCallback>
          PCD_SET_EP_RX_CNT(hpcd->Instance, PCD_ENDP0, ep->maxpacket);
 80013f8:	6821      	ldr	r1, [r4, #0]
 80013fa:	4a1f      	ldr	r2, [pc, #124]	; (8001478 <HAL_PCD_IRQHandler+0x2f4>)
 80013fc:	000b      	movs	r3, r1
 80013fe:	3350      	adds	r3, #80	; 0x50
 8001400:	881b      	ldrh	r3, [r3, #0]
 8001402:	188a      	adds	r2, r1, r2
 8001404:	18d2      	adds	r2, r2, r3
 8001406:	692b      	ldr	r3, [r5, #16]
 8001408:	2b00      	cmp	r3, #0
 800140a:	d10f      	bne.n	800142c <HAL_PCD_IRQHandler+0x2a8>
 800140c:	8813      	ldrh	r3, [r2, #0]
 800140e:	481c      	ldr	r0, [pc, #112]	; (8001480 <HAL_PCD_IRQHandler+0x2fc>)
 8001410:	4018      	ands	r0, r3
 8001412:	4b1c      	ldr	r3, [pc, #112]	; (8001484 <HAL_PCD_IRQHandler+0x300>)
 8001414:	4303      	orrs	r3, r0
 8001416:	8013      	strh	r3, [r2, #0]
          PCD_SET_EP_RX_STATUS(hpcd->Instance, PCD_ENDP0, USB_EP_RX_VALID);
 8001418:	880b      	ldrh	r3, [r1, #0]
 800141a:	4a1b      	ldr	r2, [pc, #108]	; (8001488 <HAL_PCD_IRQHandler+0x304>)
 800141c:	401a      	ands	r2, r3
 800141e:	23c0      	movs	r3, #192	; 0xc0
 8001420:	019b      	lsls	r3, r3, #6
 8001422:	4053      	eors	r3, r2
 8001424:	4a19      	ldr	r2, [pc, #100]	; (800148c <HAL_PCD_IRQHandler+0x308>)
 8001426:	4313      	orrs	r3, r2
 8001428:	800b      	strh	r3, [r1, #0]
 800142a:	e78e      	b.n	800134a <HAL_PCD_IRQHandler+0x1c6>
          PCD_SET_EP_RX_CNT(hpcd->Instance, PCD_ENDP0, ep->maxpacket);
 800142c:	2b3e      	cmp	r3, #62	; 0x3e
 800142e:	d806      	bhi.n	800143e <HAL_PCD_IRQHandler+0x2ba>
 8001430:	2501      	movs	r5, #1
 8001432:	0858      	lsrs	r0, r3, #1
 8001434:	402b      	ands	r3, r5
 8001436:	18c0      	adds	r0, r0, r3
 8001438:	0280      	lsls	r0, r0, #10
 800143a:	8010      	strh	r0, [r2, #0]
 800143c:	e7ec      	b.n	8001418 <HAL_PCD_IRQHandler+0x294>
 800143e:	251f      	movs	r5, #31
 8001440:	0958      	lsrs	r0, r3, #5
 8001442:	402b      	ands	r3, r5
 8001444:	425d      	negs	r5, r3
 8001446:	416b      	adcs	r3, r5
 8001448:	1ac0      	subs	r0, r0, r3
 800144a:	4b0e      	ldr	r3, [pc, #56]	; (8001484 <HAL_PCD_IRQHandler+0x300>)
 800144c:	0280      	lsls	r0, r0, #10
 800144e:	4318      	orrs	r0, r3
 8001450:	e7f3      	b.n	800143a <HAL_PCD_IRQHandler+0x2b6>
 8001452:	46c0      	nop			; (mov r8, r8)
 8001454:	fffffbff 	.word	0xfffffbff
 8001458:	ffffbfff 	.word	0xffffbfff
 800145c:	ffffdfff 	.word	0xffffdfff
 8001460:	ffffefff 	.word	0xffffefff
 8001464:	fffff7ff 	.word	0xfffff7ff
 8001468:	fffffdff 	.word	0xfffffdff
 800146c:	fffffeff 	.word	0xfffffeff
 8001470:	ffff8f0f 	.word	0xffff8f0f
 8001474:	00000402 	.word	0x00000402
 8001478:	00000406 	.word	0x00000406
 800147c:	00000f8f 	.word	0x00000f8f
 8001480:	ffff83ff 	.word	0xffff83ff
 8001484:	ffff8000 	.word	0xffff8000
 8001488:	ffffbf8f 	.word	0xffffbf8f
 800148c:	00008080 	.word	0x00008080
      wEPVal = PCD_GET_ENDPOINT(hpcd->Instance, epindex);
 8001490:	00b3      	lsls	r3, r6, #2
 8001492:	18c2      	adds	r2, r0, r3
 8001494:	9300      	str	r3, [sp, #0]
 8001496:	8813      	ldrh	r3, [r2, #0]
 8001498:	b29b      	uxth	r3, r3
 800149a:	9300      	str	r3, [sp, #0]
      if ((wEPVal & USB_EP_CTR_RX) != 0U)
 800149c:	466b      	mov	r3, sp
 800149e:	2100      	movs	r1, #0
 80014a0:	5e5b      	ldrsh	r3, [r3, r1]
 80014a2:	2b00      	cmp	r3, #0
 80014a4:	da3c      	bge.n	8001520 <HAL_PCD_IRQHandler+0x39c>
        PCD_CLEAR_RX_EP_CTR(hpcd->Instance, epindex);
 80014a6:	8813      	ldrh	r3, [r2, #0]
 80014a8:	4956      	ldr	r1, [pc, #344]	; (8001604 <HAL_PCD_IRQHandler+0x480>)
 80014aa:	0005      	movs	r5, r0
 80014ac:	400b      	ands	r3, r1
 80014ae:	433b      	orrs	r3, r7
 80014b0:	8013      	strh	r3, [r2, #0]
        if (ep->doublebuffer == 0U)
 80014b2:	0173      	lsls	r3, r6, #5
 80014b4:	18e3      	adds	r3, r4, r3
 80014b6:	001a      	movs	r2, r3
 80014b8:	3235      	adds	r2, #53	; 0x35
 80014ba:	32ff      	adds	r2, #255	; 0xff
 80014bc:	7811      	ldrb	r1, [r2, #0]
 80014be:	3550      	adds	r5, #80	; 0x50
 80014c0:	3a0c      	subs	r2, #12
 80014c2:	2900      	cmp	r1, #0
 80014c4:	d156      	bne.n	8001574 <HAL_PCD_IRQHandler+0x3f0>
          count = (uint16_t)PCD_GET_EP_RX_CNT(hpcd->Instance, ep->num);
 80014c6:	7812      	ldrb	r2, [r2, #0]
 80014c8:	8829      	ldrh	r1, [r5, #0]
 80014ca:	00d2      	lsls	r2, r2, #3
 80014cc:	1852      	adds	r2, r2, r1
 80014ce:	494e      	ldr	r1, [pc, #312]	; (8001608 <HAL_PCD_IRQHandler+0x484>)
 80014d0:	1812      	adds	r2, r2, r0
 80014d2:	1852      	adds	r2, r2, r1
 80014d4:	8815      	ldrh	r5, [r2, #0]
 80014d6:	05ad      	lsls	r5, r5, #22
 80014d8:	0dad      	lsrs	r5, r5, #22
          if (count != 0U)
 80014da:	d008      	beq.n	80014ee <HAL_PCD_IRQHandler+0x36a>
            USB_ReadPMA(hpcd->Instance, ep->xfer_buff, ep->pmaadress, count);
 80014dc:	001a      	movs	r2, r3
 80014de:	33fc      	adds	r3, #252	; 0xfc
 80014e0:	0019      	movs	r1, r3
 80014e2:	32fe      	adds	r2, #254	; 0xfe
 80014e4:	8e12      	ldrh	r2, [r2, #48]	; 0x30
 80014e6:	002b      	movs	r3, r5
 80014e8:	6c09      	ldr	r1, [r1, #64]	; 0x40
 80014ea:	f000 fcf7 	bl	8001edc <USB_ReadPMA>
 80014ee:	0171      	lsls	r1, r6, #5
 80014f0:	1863      	adds	r3, r4, r1
        ep->xfer_count += count;
 80014f2:	0018      	movs	r0, r3
 80014f4:	30fc      	adds	r0, #252	; 0xfc
 80014f6:	6c82      	ldr	r2, [r0, #72]	; 0x48
 80014f8:	9301      	str	r3, [sp, #4]
 80014fa:	1952      	adds	r2, r2, r5
 80014fc:	6482      	str	r2, [r0, #72]	; 0x48
        ep->xfer_buff += count;
 80014fe:	6c02      	ldr	r2, [r0, #64]	; 0x40
        if ((ep->xfer_len == 0U) || (count < ep->maxpacket))
 8001500:	6c43      	ldr	r3, [r0, #68]	; 0x44
        ep->xfer_buff += count;
 8001502:	1952      	adds	r2, r2, r5
 8001504:	6402      	str	r2, [r0, #64]	; 0x40
        if ((ep->xfer_len == 0U) || (count < ep->maxpacket))
 8001506:	469c      	mov	ip, r3
 8001508:	2b00      	cmp	r3, #0
 800150a:	d002      	beq.n	8001512 <HAL_PCD_IRQHandler+0x38e>
 800150c:	6bc0      	ldr	r0, [r0, #60]	; 0x3c
 800150e:	4285      	cmp	r5, r0
 8001510:	d267      	bcs.n	80015e2 <HAL_PCD_IRQHandler+0x45e>
          HAL_PCD_DataOutStageCallback(hpcd, ep->num);
 8001512:	1861      	adds	r1, r4, r1
 8001514:	3129      	adds	r1, #41	; 0x29
 8001516:	31ff      	adds	r1, #255	; 0xff
 8001518:	7809      	ldrb	r1, [r1, #0]
 800151a:	0020      	movs	r0, r4
 800151c:	f001 fba5 	bl	8002c6a <HAL_PCD_DataOutStageCallback>
      if ((wEPVal & USB_EP_CTR_TX) != 0U)
 8001520:	9b00      	ldr	r3, [sp, #0]
 8001522:	423b      	tst	r3, r7
 8001524:	d100      	bne.n	8001528 <HAL_PCD_IRQHandler+0x3a4>
 8001526:	e710      	b.n	800134a <HAL_PCD_IRQHandler+0x1c6>
 8001528:	6823      	ldr	r3, [r4, #0]
      {
        ep = &hpcd->IN_ep[epindex];

        /* clear int flag */
        PCD_CLEAR_TX_EP_CTR(hpcd->Instance, epindex);
 800152a:	00b2      	lsls	r2, r6, #2
 800152c:	1899      	adds	r1, r3, r2
 800152e:	880a      	ldrh	r2, [r1, #0]
 8001530:	4836      	ldr	r0, [pc, #216]	; (800160c <HAL_PCD_IRQHandler+0x488>)

        /*multi-packet on the NON control IN endpoint*/
        ep->xfer_count = PCD_GET_EP_TX_CNT(hpcd->Instance, ep->num);
 8001532:	0176      	lsls	r6, r6, #5
        PCD_CLEAR_TX_EP_CTR(hpcd->Instance, epindex);
 8001534:	4002      	ands	r2, r0
 8001536:	2080      	movs	r0, #128	; 0x80
 8001538:	0200      	lsls	r0, r0, #8
        ep->xfer_count = PCD_GET_EP_TX_CNT(hpcd->Instance, ep->num);
 800153a:	19a6      	adds	r6, r4, r6
        PCD_CLEAR_TX_EP_CTR(hpcd->Instance, epindex);
 800153c:	4302      	orrs	r2, r0
 800153e:	800a      	strh	r2, [r1, #0]
        ep->xfer_count = PCD_GET_EP_TX_CNT(hpcd->Instance, ep->num);
 8001540:	0031      	movs	r1, r6
 8001542:	001a      	movs	r2, r3
 8001544:	3128      	adds	r1, #40	; 0x28
 8001546:	7808      	ldrb	r0, [r1, #0]
 8001548:	3250      	adds	r2, #80	; 0x50
 800154a:	8812      	ldrh	r2, [r2, #0]
 800154c:	00c0      	lsls	r0, r0, #3
 800154e:	181b      	adds	r3, r3, r0
 8001550:	189b      	adds	r3, r3, r2
 8001552:	4a2f      	ldr	r2, [pc, #188]	; (8001610 <HAL_PCD_IRQHandler+0x48c>)
        {
          /* TX COMPLETE */
#if (USE_HAL_PCD_REGISTER_CALLBACKS == 1U)
          hpcd->DataInStageCallback(hpcd, ep->num);
#else
          HAL_PCD_DataInStageCallback(hpcd, ep->num);
 8001554:	0020      	movs	r0, r4
        ep->xfer_count = PCD_GET_EP_TX_CNT(hpcd->Instance, ep->num);
 8001556:	189b      	adds	r3, r3, r2
 8001558:	881a      	ldrh	r2, [r3, #0]
        ep->xfer_buff += ep->xfer_count;
 800155a:	6bf3      	ldr	r3, [r6, #60]	; 0x3c
        ep->xfer_count = PCD_GET_EP_TX_CNT(hpcd->Instance, ep->num);
 800155c:	0592      	lsls	r2, r2, #22
 800155e:	0d92      	lsrs	r2, r2, #22
 8001560:	6472      	str	r2, [r6, #68]	; 0x44
        ep->xfer_buff += ep->xfer_count;
 8001562:	189a      	adds	r2, r3, r2
        if (ep->xfer_len == 0U)
 8001564:	6c33      	ldr	r3, [r6, #64]	; 0x40
        ep->xfer_buff += ep->xfer_count;
 8001566:	63f2      	str	r2, [r6, #60]	; 0x3c
 8001568:	7809      	ldrb	r1, [r1, #0]
        if (ep->xfer_len == 0U)
 800156a:	2b00      	cmp	r3, #0
 800156c:	d142      	bne.n	80015f4 <HAL_PCD_IRQHandler+0x470>
          HAL_PCD_DataInStageCallback(hpcd, ep->num);
 800156e:	f001 fb87 	bl	8002c80 <HAL_PCD_DataInStageCallback>
 8001572:	e6ea      	b.n	800134a <HAL_PCD_IRQHandler+0x1c6>
          if ((PCD_GET_ENDPOINT(hpcd->Instance, ep->num) & USB_EP_DTOG_RX) != 0U)
 8001574:	7812      	ldrb	r2, [r2, #0]
 8001576:	0091      	lsls	r1, r2, #2
 8001578:	1841      	adds	r1, r0, r1
 800157a:	8809      	ldrh	r1, [r1, #0]
 800157c:	468c      	mov	ip, r1
 800157e:	00d1      	lsls	r1, r2, #3
 8001580:	4662      	mov	r2, ip
 8001582:	0452      	lsls	r2, r2, #17
 8001584:	d520      	bpl.n	80015c8 <HAL_PCD_IRQHandler+0x444>
            count = (uint16_t)PCD_GET_EP_DBUF0_CNT(hpcd->Instance, ep->num);
 8001586:	882a      	ldrh	r2, [r5, #0]
 8001588:	1882      	adds	r2, r0, r2
 800158a:	1852      	adds	r2, r2, r1
 800158c:	4920      	ldr	r1, [pc, #128]	; (8001610 <HAL_PCD_IRQHandler+0x48c>)
 800158e:	1852      	adds	r2, r2, r1
 8001590:	8815      	ldrh	r5, [r2, #0]
 8001592:	05ad      	lsls	r5, r5, #22
 8001594:	0dad      	lsrs	r5, r5, #22
            if (count != 0U)
 8001596:	d008      	beq.n	80015aa <HAL_PCD_IRQHandler+0x426>
              USB_ReadPMA(hpcd->Instance, ep->xfer_buff, ep->pmaaddr0, count);
 8001598:	001a      	movs	r2, r3
 800159a:	32fe      	adds	r2, #254	; 0xfe
 800159c:	8e52      	ldrh	r2, [r2, #50]	; 0x32
              USB_ReadPMA(hpcd->Instance, ep->xfer_buff, ep->pmaaddr1, count);
 800159e:	33fc      	adds	r3, #252	; 0xfc
 80015a0:	0019      	movs	r1, r3
 80015a2:	002b      	movs	r3, r5
 80015a4:	6c09      	ldr	r1, [r1, #64]	; 0x40
 80015a6:	f000 fc99 	bl	8001edc <USB_ReadPMA>
          PCD_FreeUserBuffer(hpcd->Instance, ep->num, 0U);
 80015aa:	0173      	lsls	r3, r6, #5
 80015ac:	18e3      	adds	r3, r4, r3
 80015ae:	3329      	adds	r3, #41	; 0x29
 80015b0:	33ff      	adds	r3, #255	; 0xff
 80015b2:	781a      	ldrb	r2, [r3, #0]
 80015b4:	6823      	ldr	r3, [r4, #0]
 80015b6:	0092      	lsls	r2, r2, #2
 80015b8:	189a      	adds	r2, r3, r2
 80015ba:	8813      	ldrh	r3, [r2, #0]
 80015bc:	4915      	ldr	r1, [pc, #84]	; (8001614 <HAL_PCD_IRQHandler+0x490>)
 80015be:	400b      	ands	r3, r1
 80015c0:	4915      	ldr	r1, [pc, #84]	; (8001618 <HAL_PCD_IRQHandler+0x494>)
 80015c2:	430b      	orrs	r3, r1
 80015c4:	8013      	strh	r3, [r2, #0]
 80015c6:	e792      	b.n	80014ee <HAL_PCD_IRQHandler+0x36a>
            count = (uint16_t)PCD_GET_EP_DBUF1_CNT(hpcd->Instance, ep->num);
 80015c8:	882a      	ldrh	r2, [r5, #0]
 80015ca:	1882      	adds	r2, r0, r2
 80015cc:	1852      	adds	r2, r2, r1
 80015ce:	490e      	ldr	r1, [pc, #56]	; (8001608 <HAL_PCD_IRQHandler+0x484>)
 80015d0:	1852      	adds	r2, r2, r1
 80015d2:	8815      	ldrh	r5, [r2, #0]
 80015d4:	05ad      	lsls	r5, r5, #22
 80015d6:	0dad      	lsrs	r5, r5, #22
            if (count != 0U)
 80015d8:	d0e7      	beq.n	80015aa <HAL_PCD_IRQHandler+0x426>
              USB_ReadPMA(hpcd->Instance, ep->xfer_buff, ep->pmaaddr1, count);
 80015da:	001a      	movs	r2, r3
 80015dc:	32fe      	adds	r2, #254	; 0xfe
 80015de:	8e92      	ldrh	r2, [r2, #52]	; 0x34
 80015e0:	e7dd      	b.n	800159e <HAL_PCD_IRQHandler+0x41a>
          (void)HAL_PCD_EP_Receive(hpcd, ep->num, ep->xfer_buff, ep->xfer_len);
 80015e2:	9b01      	ldr	r3, [sp, #4]
 80015e4:	0020      	movs	r0, r4
 80015e6:	3329      	adds	r3, #41	; 0x29
 80015e8:	33ff      	adds	r3, #255	; 0xff
 80015ea:	7819      	ldrb	r1, [r3, #0]
 80015ec:	4663      	mov	r3, ip
 80015ee:	f7ff fd90 	bl	8001112 <HAL_PCD_EP_Receive>
 80015f2:	e795      	b.n	8001520 <HAL_PCD_IRQHandler+0x39c>
#endif /* USE_HAL_PCD_REGISTER_CALLBACKS */
        }
        else
        {
          (void)HAL_PCD_EP_Transmit(hpcd, ep->num, ep->xfer_buff, ep->xfer_len);
 80015f4:	f7ff fdaf 	bl	8001156 <HAL_PCD_EP_Transmit>
 80015f8:	e6a7      	b.n	800134a <HAL_PCD_IRQHandler+0x1c6>
      HAL_PCD_SuspendCallback(hpcd);
 80015fa:	0020      	movs	r0, r4
 80015fc:	f001 fb62 	bl	8002cc4 <HAL_PCD_SuspendCallback>
 8001600:	e655      	b.n	80012ae <HAL_PCD_IRQHandler+0x12a>
 8001602:	46c0      	nop			; (mov r8, r8)
 8001604:	00000f8f 	.word	0x00000f8f
 8001608:	00000406 	.word	0x00000406
 800160c:	ffff8f0f 	.word	0xffff8f0f
 8001610:	00000402 	.word	0x00000402
 8001614:	ffff8f8f 	.word	0xffff8f8f
 8001618:	000080c0 	.word	0x000080c0

0800161c <HAL_PCD_EP_SetStall>:
{
 800161c:	b570      	push	{r4, r5, r6, lr}
 800161e:	0004      	movs	r4, r0
 8001620:	2507      	movs	r5, #7
  if (((uint32_t)ep_addr & EP_ADDR_MSK) > hpcd->Init.dev_endpoints)
 8001622:	6863      	ldr	r3, [r4, #4]
 8001624:	400d      	ands	r5, r1
    return HAL_ERROR;
 8001626:	2001      	movs	r0, #1
  if (((uint32_t)ep_addr & EP_ADDR_MSK) > hpcd->Init.dev_endpoints)
 8001628:	429d      	cmp	r5, r3
 800162a:	d820      	bhi.n	800166e <HAL_PCD_EP_SetStall+0x52>
  if ((0x80U & ep_addr) == 0x80U)
 800162c:	b24b      	sxtb	r3, r1
 800162e:	2b00      	cmp	r3, #0
 8001630:	da1e      	bge.n	8001670 <HAL_PCD_EP_SetStall+0x54>
    ep = &hpcd->IN_ep[ep_addr & EP_ADDR_MSK];
 8001632:	016b      	lsls	r3, r5, #5
 8001634:	0019      	movs	r1, r3
    ep->is_in = 1U;
 8001636:	18e3      	adds	r3, r4, r3
    ep = &hpcd->IN_ep[ep_addr & EP_ADDR_MSK];
 8001638:	3128      	adds	r1, #40	; 0x28
    ep->is_in = 1U;
 800163a:	3329      	adds	r3, #41	; 0x29
    ep = &hpcd->IN_ep[ep_addr & EP_ADDR_MSK];
 800163c:	1861      	adds	r1, r4, r1
    ep->is_in = 1U;
 800163e:	7018      	strb	r0, [r3, #0]
  ep->is_stall = 1U;
 8001640:	2301      	movs	r3, #1
  __HAL_LOCK(hpcd);
 8001642:	268a      	movs	r6, #138	; 0x8a
  ep->is_stall = 1U;
 8001644:	708b      	strb	r3, [r1, #2]
  ep->num = ep_addr & EP_ADDR_MSK;
 8001646:	700d      	strb	r5, [r1, #0]
  __HAL_LOCK(hpcd);
 8001648:	00b6      	lsls	r6, r6, #2
 800164a:	5da2      	ldrb	r2, [r4, r6]
 800164c:	2002      	movs	r0, #2
 800164e:	429a      	cmp	r2, r3
 8001650:	d00d      	beq.n	800166e <HAL_PCD_EP_SetStall+0x52>
 8001652:	55a3      	strb	r3, [r4, r6]
  (void)USB_EPSetStall(hpcd->Instance, ep);
 8001654:	6820      	ldr	r0, [r4, #0]
 8001656:	f000 facf 	bl	8001bf8 <USB_EPSetStall>
  if ((ep_addr & EP_ADDR_MSK) == 0U)
 800165a:	2d00      	cmp	r5, #0
 800165c:	d105      	bne.n	800166a <HAL_PCD_EP_SetStall+0x4e>
    (void)USB_EP0_OutStart(hpcd->Instance, (uint8_t *)hpcd->Setup);
 800165e:	238c      	movs	r3, #140	; 0x8c
 8001660:	009b      	lsls	r3, r3, #2
 8001662:	18e1      	adds	r1, r4, r3
 8001664:	6820      	ldr	r0, [r4, #0]
 8001666:	f000 fb3a 	bl	8001cde <USB_EP0_OutStart>
  __HAL_UNLOCK(hpcd);
 800166a:	2000      	movs	r0, #0
 800166c:	55a0      	strb	r0, [r4, r6]
}
 800166e:	bd70      	pop	{r4, r5, r6, pc}
    ep = &hpcd->OUT_ep[ep_addr];
 8001670:	014b      	lsls	r3, r1, #5
 8001672:	0019      	movs	r1, r3
    ep->is_in = 0U;
 8001674:	2200      	movs	r2, #0
 8001676:	18e3      	adds	r3, r4, r3
    ep = &hpcd->OUT_ep[ep_addr];
 8001678:	3129      	adds	r1, #41	; 0x29
    ep->is_in = 0U;
 800167a:	332a      	adds	r3, #42	; 0x2a
    ep = &hpcd->OUT_ep[ep_addr];
 800167c:	31ff      	adds	r1, #255	; 0xff
    ep->is_in = 0U;
 800167e:	33ff      	adds	r3, #255	; 0xff
    ep = &hpcd->OUT_ep[ep_addr];
 8001680:	1861      	adds	r1, r4, r1
    ep->is_in = 0U;
 8001682:	701a      	strb	r2, [r3, #0]
 8001684:	e7dc      	b.n	8001640 <HAL_PCD_EP_SetStall+0x24>

08001686 <HAL_PCD_EP_ClrStall>:
{
 8001686:	b570      	push	{r4, r5, r6, lr}
 8001688:	0004      	movs	r4, r0
  if (((uint32_t)ep_addr & 0x0FU) > hpcd->Init.dev_endpoints)
 800168a:	230f      	movs	r3, #15
 800168c:	6862      	ldr	r2, [r4, #4]
 800168e:	400b      	ands	r3, r1
    return HAL_ERROR;
 8001690:	2001      	movs	r0, #1
  if (((uint32_t)ep_addr & 0x0FU) > hpcd->Init.dev_endpoints)
 8001692:	4293      	cmp	r3, r2
 8001694:	d81a      	bhi.n	80016cc <HAL_PCD_EP_ClrStall+0x46>
 8001696:	2507      	movs	r5, #7
 8001698:	400d      	ands	r5, r1
 800169a:	016b      	lsls	r3, r5, #5
  if ((0x80U & ep_addr) == 0x80U)
 800169c:	b249      	sxtb	r1, r1
 800169e:	18e2      	adds	r2, r4, r3
 80016a0:	2900      	cmp	r1, #0
 80016a2:	da14      	bge.n	80016ce <HAL_PCD_EP_ClrStall+0x48>
    ep = &hpcd->IN_ep[ep_addr & EP_ADDR_MSK];
 80016a4:	3328      	adds	r3, #40	; 0x28
    ep->is_in = 1U;
 80016a6:	3229      	adds	r2, #41	; 0x29
    ep = &hpcd->IN_ep[ep_addr & EP_ADDR_MSK];
 80016a8:	18e1      	adds	r1, r4, r3
    ep->is_in = 1U;
 80016aa:	7010      	strb	r0, [r2, #0]
  ep->num = ep_addr & EP_ADDR_MSK;
 80016ac:	700d      	strb	r5, [r1, #0]
  ep->is_stall = 0U;
 80016ae:	2600      	movs	r6, #0
  __HAL_LOCK(hpcd);
 80016b0:	258a      	movs	r5, #138	; 0x8a
  ep->is_stall = 0U;
 80016b2:	708e      	strb	r6, [r1, #2]
  __HAL_LOCK(hpcd);
 80016b4:	00ad      	lsls	r5, r5, #2
 80016b6:	5d63      	ldrb	r3, [r4, r5]
 80016b8:	2002      	movs	r0, #2
 80016ba:	2b01      	cmp	r3, #1
 80016bc:	d006      	beq.n	80016cc <HAL_PCD_EP_ClrStall+0x46>
 80016be:	2301      	movs	r3, #1
  (void)USB_EPClearStall(hpcd->Instance, ep);
 80016c0:	6820      	ldr	r0, [r4, #0]
  __HAL_LOCK(hpcd);
 80016c2:	5563      	strb	r3, [r4, r5]
  (void)USB_EPClearStall(hpcd->Instance, ep);
 80016c4:	f000 fab6 	bl	8001c34 <USB_EPClearStall>
  return HAL_OK;
 80016c8:	0030      	movs	r0, r6
  __HAL_UNLOCK(hpcd);
 80016ca:	5566      	strb	r6, [r4, r5]
}
 80016cc:	bd70      	pop	{r4, r5, r6, pc}
    ep = &hpcd->OUT_ep[ep_addr & EP_ADDR_MSK];
 80016ce:	3329      	adds	r3, #41	; 0x29
 80016d0:	33ff      	adds	r3, #255	; 0xff
 80016d2:	18e1      	adds	r1, r4, r3
    ep->is_in = 0U;
 80016d4:	2300      	movs	r3, #0
 80016d6:	322a      	adds	r2, #42	; 0x2a
 80016d8:	32ff      	adds	r2, #255	; 0xff
 80016da:	7013      	strb	r3, [r2, #0]
 80016dc:	e7e6      	b.n	80016ac <HAL_PCD_EP_ClrStall+0x26>

080016de <HAL_PCDEx_PMAConfig>:

HAL_StatusTypeDef  HAL_PCDEx_PMAConfig(PCD_HandleTypeDef *hpcd,
                                       uint16_t ep_addr,
                                       uint16_t ep_kind,
                                       uint32_t pmaadress)
{
 80016de:	b510      	push	{r4, lr}
  PCD_EPTypeDef *ep;

  /* initialize ep structure*/
  if ((0x80U & ep_addr) == 0x80U)
 80016e0:	060c      	lsls	r4, r1, #24
 80016e2:	d50b      	bpl.n	80016fc <HAL_PCDEx_PMAConfig+0x1e>
  {
    ep = &hpcd->IN_ep[ep_addr & EP_ADDR_MSK];
 80016e4:	2407      	movs	r4, #7
 80016e6:	4021      	ands	r1, r4
 80016e8:	0149      	lsls	r1, r1, #5
 80016ea:	3128      	adds	r1, #40	; 0x28
  }
  else
  {
    ep = &hpcd->OUT_ep[ep_addr];
 80016ec:	1841      	adds	r1, r0, r1
 80016ee:	b298      	uxth	r0, r3
  }

  /* Here we check if the endpoint is single or double Buffer*/
  if (ep_kind == PCD_SNG_BUF)
 80016f0:	2a00      	cmp	r2, #0
 80016f2:	d107      	bne.n	8001704 <HAL_PCDEx_PMAConfig+0x26>
  {
    /* Single Buffer */
    ep->doublebuffer = 0U;
 80016f4:	730a      	strb	r2, [r1, #12]
    /* Configure the PMA */
    ep->pmaadress = (uint16_t)pmaadress;
 80016f6:	80c8      	strh	r0, [r1, #6]
    ep->pmaaddr0 = (uint16_t)(pmaadress & 0xFFFFU);
    ep->pmaaddr1 = (uint16_t)((pmaadress & 0xFFFF0000U) >> 16);
  }

  return HAL_OK;
}
 80016f8:	2000      	movs	r0, #0
 80016fa:	bd10      	pop	{r4, pc}
    ep = &hpcd->OUT_ep[ep_addr];
 80016fc:	0149      	lsls	r1, r1, #5
 80016fe:	3129      	adds	r1, #41	; 0x29
 8001700:	31ff      	adds	r1, #255	; 0xff
 8001702:	e7f3      	b.n	80016ec <HAL_PCDEx_PMAConfig+0xe>
    ep->doublebuffer = 1U;
 8001704:	2201      	movs	r2, #1
    ep->pmaaddr1 = (uint16_t)((pmaadress & 0xFFFF0000U) >> 16);
 8001706:	0c1b      	lsrs	r3, r3, #16
    ep->doublebuffer = 1U;
 8001708:	730a      	strb	r2, [r1, #12]
    ep->pmaaddr0 = (uint16_t)(pmaadress & 0xFFFFU);
 800170a:	8108      	strh	r0, [r1, #8]
    ep->pmaaddr1 = (uint16_t)((pmaadress & 0xFFFF0000U) >> 16);
 800170c:	814b      	strh	r3, [r1, #10]
 800170e:	e7f3      	b.n	80016f8 <HAL_PCDEx_PMAConfig+0x1a>

08001710 <HAL_PCDEx_ActivateLPM>:
  * @retval HAL status
  */
HAL_StatusTypeDef HAL_PCDEx_ActivateLPM(PCD_HandleTypeDef *hpcd)
{

  USB_TypeDef *USBx = hpcd->Instance;
 8001710:	6803      	ldr	r3, [r0, #0]
{
 8001712:	0001      	movs	r1, r0
  hpcd->lpm_active = 1U;
 8001714:	209a      	movs	r0, #154	; 0x9a
 8001716:	2201      	movs	r2, #1
{
 8001718:	b510      	push	{r4, lr}
  hpcd->lpm_active = 1U;
 800171a:	0080      	lsls	r0, r0, #2
  hpcd->LPM_State = LPM_L0;
 800171c:	2498      	movs	r4, #152	; 0x98
  hpcd->lpm_active = 1U;
 800171e:	500a      	str	r2, [r1, r0]
  hpcd->LPM_State = LPM_L0;
 8001720:	2000      	movs	r0, #0
 8001722:	00a4      	lsls	r4, r4, #2
 8001724:	5508      	strb	r0, [r1, r4]

  USBx->LPMCSR |= USB_LPMCSR_LMPEN;
 8001726:	3354      	adds	r3, #84	; 0x54
 8001728:	8819      	ldrh	r1, [r3, #0]
 800172a:	430a      	orrs	r2, r1
 800172c:	801a      	strh	r2, [r3, #0]
  USBx->LPMCSR |= USB_LPMCSR_LPMACK;
 800172e:	2202      	movs	r2, #2
 8001730:	8819      	ldrh	r1, [r3, #0]
 8001732:	430a      	orrs	r2, r1
 8001734:	801a      	strh	r2, [r3, #0]

  return HAL_OK;
}
 8001736:	bd10      	pop	{r4, pc}

08001738 <HAL_PCDEx_LPM_Callback>:
  UNUSED(msg);

  /* NOTE : This function should not be modified, when the callback is needed,
            the HAL_PCDEx_LPM_Callback could be implemented in the user file
   */
}
 8001738:	4770      	bx	lr

0800173a <LL_GPIO_Init>:
  * @retval An ErrorStatus enumeration value:
  *          - SUCCESS: GPIO registers are initialized according to GPIO_InitStruct content
  *          - ERROR:   Not applicable
  */
ErrorStatus LL_GPIO_Init(GPIO_TypeDef *GPIOx, LL_GPIO_InitTypeDef *GPIO_InitStruct)
{
 800173a:	b5f0      	push	{r4, r5, r6, r7, lr}
  assert_param(IS_LL_GPIO_MODE(GPIO_InitStruct->Mode));
  assert_param(IS_LL_GPIO_PULL(GPIO_InitStruct->Pull));

  /* ------------------------- Configure the port pins ---------------- */
  /* Initialize  pinpos on first pin set */
  pinpos = 0;
 800173c:	2700      	movs	r7, #0
 800173e:	684b      	ldr	r3, [r1, #4]
{
 8001740:	b085      	sub	sp, #20
 8001742:	9301      	str	r3, [sp, #4]

  /* Configure the port pins */
  while (((GPIO_InitStruct->Pin) >> pinpos) != 0x00u)
 8001744:	680e      	ldr	r6, [r1, #0]
 8001746:	3b01      	subs	r3, #1
 8001748:	9302      	str	r3, [sp, #8]
 800174a:	0033      	movs	r3, r6
 800174c:	40fb      	lsrs	r3, r7
 800174e:	d10b      	bne.n	8001768 <LL_GPIO_Init+0x2e>
      }
    }
    pinpos++;
  }

  if ((GPIO_InitStruct->Mode == LL_GPIO_MODE_OUTPUT) || (GPIO_InitStruct->Mode == LL_GPIO_MODE_ALTERNATE))
 8001750:	9b02      	ldr	r3, [sp, #8]
 8001752:	2b01      	cmp	r3, #1
 8001754:	d805      	bhi.n	8001762 <LL_GPIO_Init+0x28>
  MODIFY_REG(GPIOx->OTYPER, PinMask, (PinMask * OutputType));
 8001756:	6843      	ldr	r3, [r0, #4]
 8001758:	68ca      	ldr	r2, [r1, #12]
 800175a:	43b3      	bics	r3, r6
 800175c:	4356      	muls	r6, r2
 800175e:	431e      	orrs	r6, r3
 8001760:	6046      	str	r6, [r0, #4]
    /* Output mode configuration*/
    LL_GPIO_SetPinOutputType(GPIOx, GPIO_InitStruct->Pin, GPIO_InitStruct->OutputType);

  }
  return (SUCCESS);
}
 8001762:	2000      	movs	r0, #0
 8001764:	b005      	add	sp, #20
 8001766:	bdf0      	pop	{r4, r5, r6, r7, pc}
    currentpin = (GPIO_InitStruct->Pin) & (0x00000001uL << pinpos);
 8001768:	2301      	movs	r3, #1
 800176a:	40bb      	lsls	r3, r7
 800176c:	4033      	ands	r3, r6
    if (currentpin != 0x00u)
 800176e:	d033      	beq.n	80017d8 <LL_GPIO_Init+0x9e>
  MODIFY_REG(GPIOx->MODER, ((Pin * Pin) * GPIO_MODER_MODER0), ((Pin * Pin) * Mode));
 8001770:	001a      	movs	r2, r3
 8001772:	2503      	movs	r5, #3
 8001774:	435a      	muls	r2, r3
 8001776:	4355      	muls	r5, r2
 8001778:	43ed      	mvns	r5, r5
 800177a:	6804      	ldr	r4, [r0, #0]
 800177c:	9500      	str	r5, [sp, #0]
 800177e:	402c      	ands	r4, r5
 8001780:	9d01      	ldr	r5, [sp, #4]
 8001782:	4355      	muls	r5, r2
 8001784:	432c      	orrs	r4, r5
 8001786:	6004      	str	r4, [r0, #0]
      if ((GPIO_InitStruct->Mode == LL_GPIO_MODE_OUTPUT) || (GPIO_InitStruct->Mode == LL_GPIO_MODE_ALTERNATE))
 8001788:	9c02      	ldr	r4, [sp, #8]
 800178a:	2c01      	cmp	r4, #1
 800178c:	d80a      	bhi.n	80017a4 <LL_GPIO_Init+0x6a>
  MODIFY_REG(GPIOx->OSPEEDR, ((Pin * Pin) * GPIO_OSPEEDR_OSPEEDR0), ((Pin * Pin) * Speed));
 800178e:	6884      	ldr	r4, [r0, #8]
 8001790:	46a4      	mov	ip, r4
 8001792:	4665      	mov	r5, ip
 8001794:	688c      	ldr	r4, [r1, #8]
 8001796:	4354      	muls	r4, r2
 8001798:	9403      	str	r4, [sp, #12]
 800179a:	9c00      	ldr	r4, [sp, #0]
 800179c:	4025      	ands	r5, r4
 800179e:	9c03      	ldr	r4, [sp, #12]
 80017a0:	432c      	orrs	r4, r5
 80017a2:	6084      	str	r4, [r0, #8]
  MODIFY_REG(GPIOx->PUPDR, ((Pin * Pin) * GPIO_PUPDR_PUPDR0), ((Pin * Pin) * Pull));
 80017a4:	68c4      	ldr	r4, [r0, #12]
 80017a6:	46a4      	mov	ip, r4
 80017a8:	4665      	mov	r5, ip
 80017aa:	690c      	ldr	r4, [r1, #16]
 80017ac:	4354      	muls	r4, r2
 80017ae:	9403      	str	r4, [sp, #12]
 80017b0:	9c00      	ldr	r4, [sp, #0]
 80017b2:	402c      	ands	r4, r5
 80017b4:	0025      	movs	r5, r4
 80017b6:	9c03      	ldr	r4, [sp, #12]
 80017b8:	4325      	orrs	r5, r4
      if (GPIO_InitStruct->Mode == LL_GPIO_MODE_ALTERNATE)
 80017ba:	9c01      	ldr	r4, [sp, #4]
 80017bc:	60c5      	str	r5, [r0, #12]
 80017be:	2c02      	cmp	r4, #2
 80017c0:	d10a      	bne.n	80017d8 <LL_GPIO_Init+0x9e>
 80017c2:	694c      	ldr	r4, [r1, #20]
        if (currentpin < LL_GPIO_PIN_8)
 80017c4:	2bff      	cmp	r3, #255	; 0xff
 80017c6:	d809      	bhi.n	80017dc <LL_GPIO_Init+0xa2>
  MODIFY_REG(GPIOx->AFR[0], ((((Pin * Pin) * Pin) * Pin) * GPIO_AFRL_AFSEL0),
 80017c8:	250f      	movs	r5, #15
 80017ca:	4352      	muls	r2, r2
 80017cc:	4355      	muls	r5, r2
 80017ce:	4362      	muls	r2, r4
 80017d0:	6a03      	ldr	r3, [r0, #32]
 80017d2:	43ab      	bics	r3, r5
 80017d4:	4313      	orrs	r3, r2
 80017d6:	6203      	str	r3, [r0, #32]
    pinpos++;
 80017d8:	3701      	adds	r7, #1
 80017da:	e7b6      	b.n	800174a <LL_GPIO_Init+0x10>
  MODIFY_REG(GPIOx->AFR[1], (((((Pin >> 8U) * (Pin >> 8U)) * (Pin >> 8U)) * (Pin >> 8U)) * GPIO_AFRH_AFSEL8),
 80017dc:	220f      	movs	r2, #15
 80017de:	0a1b      	lsrs	r3, r3, #8
 80017e0:	435b      	muls	r3, r3
 80017e2:	435b      	muls	r3, r3
 80017e4:	435a      	muls	r2, r3
 80017e6:	4363      	muls	r3, r4
 80017e8:	6a45      	ldr	r5, [r0, #36]	; 0x24
 80017ea:	4395      	bics	r5, r2
 80017ec:	431d      	orrs	r5, r3
 80017ee:	6245      	str	r5, [r0, #36]	; 0x24
 80017f0:	e7f2      	b.n	80017d8 <LL_GPIO_Init+0x9e>
	...

080017f4 <USB_EnableGlobalInt>:
                   USB_CNTR_SUSPM | USB_CNTR_ERRM |
                   USB_CNTR_SOFM | USB_CNTR_ESOFM |
                   USB_CNTR_RESETM | USB_CNTR_L1REQM;

  /* Set interrupt mask */
  USBx->CNTR |= winterruptmask;
 80017f4:	3002      	adds	r0, #2
 80017f6:	8fc3      	ldrh	r3, [r0, #62]	; 0x3e
 80017f8:	4a02      	ldr	r2, [pc, #8]	; (8001804 <USB_EnableGlobalInt+0x10>)
 80017fa:	4313      	orrs	r3, r2
 80017fc:	87c3      	strh	r3, [r0, #62]	; 0x3e

  return HAL_OK;
}
 80017fe:	2000      	movs	r0, #0
 8001800:	4770      	bx	lr
 8001802:	46c0      	nop			; (mov r8, r8)
 8001804:	0000bf80 	.word	0x0000bf80

08001808 <USB_DisableGlobalInt>:
                   USB_CNTR_SUSPM | USB_CNTR_ERRM |
                   USB_CNTR_SOFM | USB_CNTR_ESOFM |
                   USB_CNTR_RESETM | USB_CNTR_L1REQM;

  /* Clear interrupt mask */
  USBx->CNTR &= ~winterruptmask;
 8001808:	3002      	adds	r0, #2
 800180a:	8fc3      	ldrh	r3, [r0, #62]	; 0x3e
 800180c:	4a02      	ldr	r2, [pc, #8]	; (8001818 <USB_DisableGlobalInt+0x10>)
 800180e:	4013      	ands	r3, r2
 8001810:	87c3      	strh	r3, [r0, #62]	; 0x3e

  return HAL_OK;
}
 8001812:	2000      	movs	r0, #0
 8001814:	4770      	bx	lr
 8001816:	46c0      	nop			; (mov r8, r8)
 8001818:	0000407f 	.word	0x0000407f

0800181c <USB_DevInit>:
  * @param  cfg  : pointer to a USB_CfgTypeDef structure that contains
  *         the configuration information for the specified USBx peripheral.
  * @retval HAL status
  */
HAL_StatusTypeDef USB_DevInit(USB_TypeDef *USBx, USB_CfgTypeDef cfg)
{
 800181c:	b084      	sub	sp, #16
 800181e:	9303      	str	r3, [sp, #12]
  /* Prevent unused argument(s) compilation warning */
  UNUSED(cfg);

  /* Init Device */
  /*CNTR_FRES = 1*/
  USBx->CNTR = USB_CNTR_FRES;
 8001820:	2301      	movs	r3, #1
{
 8001822:	9202      	str	r2, [sp, #8]

  /*CNTR_FRES = 0*/
  USBx->CNTR = 0;
 8001824:	2200      	movs	r2, #0
{
 8001826:	9101      	str	r1, [sp, #4]
  USBx->CNTR = USB_CNTR_FRES;
 8001828:	1c81      	adds	r1, r0, #2
 800182a:	87cb      	strh	r3, [r1, #62]	; 0x3e

  /*Clear pending interrupts*/
  USBx->ISTR = 0;
 800182c:	1d83      	adds	r3, r0, #6

  /*Set Btable Address*/
  USBx->BTABLE = BTABLE_ADDRESS;
 800182e:	3050      	adds	r0, #80	; 0x50
  USBx->CNTR = 0;
 8001830:	87ca      	strh	r2, [r1, #62]	; 0x3e
  USBx->ISTR = 0;
 8001832:	87da      	strh	r2, [r3, #62]	; 0x3e
  USBx->BTABLE = BTABLE_ADDRESS;
 8001834:	8002      	strh	r2, [r0, #0]
  USBx->CNTR |= winterruptmask;
 8001836:	8fcb      	ldrh	r3, [r1, #62]	; 0x3e
 8001838:	4802      	ldr	r0, [pc, #8]	; (8001844 <USB_DevInit+0x28>)
 800183a:	4303      	orrs	r3, r0
 800183c:	87cb      	strh	r3, [r1, #62]	; 0x3e

  /* Enable USB Device Interrupt mask */
  (void)USB_EnableGlobalInt(USBx);

  return HAL_OK;
}
 800183e:	0010      	movs	r0, r2
 8001840:	b004      	add	sp, #16
 8001842:	4770      	bx	lr
 8001844:	0000bf80 	.word	0x0000bf80

08001848 <USB_ActivateEndpoint>:
  * @param  USBx : Selected device
  * @param  ep: pointer to endpoint structure
  * @retval HAL status
  */
HAL_StatusTypeDef USB_ActivateEndpoint(USB_TypeDef *USBx, USB_EPTypeDef *ep)
{
 8001848:	b5f7      	push	{r0, r1, r2, r4, r5, r6, r7, lr}
  HAL_StatusTypeDef ret = HAL_OK;
  uint16_t wEpRegVal;

  wEpRegVal = PCD_GET_ENDPOINT(USBx, ep->num) & USB_EP_T_MASK;
 800184a:	780d      	ldrb	r5, [r1, #0]
 800184c:	4a91      	ldr	r2, [pc, #580]	; (8001a94 <USB_ActivateEndpoint+0x24c>)
 800184e:	00ad      	lsls	r5, r5, #2
 8001850:	1945      	adds	r5, r0, r5
 8001852:	882c      	ldrh	r4, [r5, #0]
{
 8001854:	0003      	movs	r3, r0
  wEpRegVal = PCD_GET_ENDPOINT(USBx, ep->num) & USB_EP_T_MASK;
 8001856:	4014      	ands	r4, r2
    case EP_TYPE_ISOC:
      wEpRegVal |= USB_EP_ISOCHRONOUS;
      break;

    default:
      ret = HAL_ERROR;
 8001858:	2201      	movs	r2, #1
  switch (ep->type)
 800185a:	78c8      	ldrb	r0, [r1, #3]
      ret = HAL_ERROR;
 800185c:	9200      	str	r2, [sp, #0]
  switch (ep->type)
 800185e:	2803      	cmp	r0, #3
 8001860:	d808      	bhi.n	8001874 <USB_ActivateEndpoint+0x2c>
 8001862:	f7fe fc51 	bl	8000108 <__gnu_thumb1_case_uqi>
 8001866:	4b02      	.short	0x4b02
 8001868:	4805      	.short	0x4805
      wEpRegVal |= USB_EP_CONTROL;
 800186a:	2280      	movs	r2, #128	; 0x80
 800186c:	0092      	lsls	r2, r2, #2
      wEpRegVal |= USB_EP_ISOCHRONOUS;
 800186e:	4314      	orrs	r4, r2
  HAL_StatusTypeDef ret = HAL_OK;
 8001870:	2200      	movs	r2, #0
 8001872:	9200      	str	r2, [sp, #0]
 8001874:	001e      	movs	r6, r3
      break;
  }

  PCD_SET_ENDPOINT(USBx, ep->num, wEpRegVal | USB_EP_CTR_RX | USB_EP_CTR_TX);
 8001876:	4a88      	ldr	r2, [pc, #544]	; (8001a98 <USB_ActivateEndpoint+0x250>)

  PCD_SET_EP_ADDRESS(USBx, ep->num, ep->num);
 8001878:	4f88      	ldr	r7, [pc, #544]	; (8001a9c <USB_ActivateEndpoint+0x254>)
  PCD_SET_ENDPOINT(USBx, ep->num, wEpRegVal | USB_EP_CTR_RX | USB_EP_CTR_TX);
 800187a:	4314      	orrs	r4, r2
 800187c:	b2a4      	uxth	r4, r4
 800187e:	802c      	strh	r4, [r5, #0]
  PCD_SET_EP_ADDRESS(USBx, ep->num, ep->num);
 8001880:	780d      	ldrb	r5, [r1, #0]
 8001882:	3650      	adds	r6, #80	; 0x50
 8001884:	00ac      	lsls	r4, r5, #2
 8001886:	191c      	adds	r4, r3, r4
 8001888:	8820      	ldrh	r0, [r4, #0]
 800188a:	4038      	ands	r0, r7
 800188c:	4328      	orrs	r0, r5
 800188e:	4310      	orrs	r0, r2
 8001890:	b280      	uxth	r0, r0
 8001892:	8020      	strh	r0, [r4, #0]

  if (ep->doublebuffer == 0U)
 8001894:	7b0d      	ldrb	r5, [r1, #12]
 8001896:	7808      	ldrb	r0, [r1, #0]
 8001898:	003c      	movs	r4, r7
 800189a:	2d00      	cmp	r5, #0
 800189c:	d000      	beq.n	80018a0 <USB_ActivateEndpoint+0x58>
 800189e:	e06f      	b.n	8001980 <USB_ActivateEndpoint+0x138>
 80018a0:	00c0      	lsls	r0, r0, #3
 80018a2:	18c0      	adds	r0, r0, r3
 80018a4:	88cd      	ldrh	r5, [r1, #6]
 80018a6:	9001      	str	r0, [sp, #4]
  {
    if (ep->is_in != 0U)
 80018a8:	7848      	ldrb	r0, [r1, #1]
 80018aa:	086d      	lsrs	r5, r5, #1
 80018ac:	006d      	lsls	r5, r5, #1
 80018ae:	2800      	cmp	r0, #0
 80018b0:	d029      	beq.n	8001906 <USB_ActivateEndpoint+0xbe>
    {
      /*Set the endpoint Transmit buffer address */
      PCD_SET_EP_TX_ADDRESS(USBx, ep->num, ep->pmaadress);
 80018b2:	8834      	ldrh	r4, [r6, #0]
 80018b4:	9801      	ldr	r0, [sp, #4]
 80018b6:	1820      	adds	r0, r4, r0
 80018b8:	2480      	movs	r4, #128	; 0x80
 80018ba:	00e4      	lsls	r4, r4, #3
 80018bc:	1900      	adds	r0, r0, r4
 80018be:	8005      	strh	r5, [r0, #0]
      PCD_CLEAR_TX_DTOG(USBx, ep->num);
 80018c0:	7808      	ldrb	r0, [r1, #0]
 80018c2:	0080      	lsls	r0, r0, #2
 80018c4:	1818      	adds	r0, r3, r0
 80018c6:	8804      	ldrh	r4, [r0, #0]
 80018c8:	0664      	lsls	r4, r4, #25
 80018ca:	d504      	bpl.n	80018d6 <USB_ActivateEndpoint+0x8e>
 80018cc:	8804      	ldrh	r4, [r0, #0]
 80018ce:	4027      	ands	r7, r4
 80018d0:	4c73      	ldr	r4, [pc, #460]	; (8001aa0 <USB_ActivateEndpoint+0x258>)
 80018d2:	4327      	orrs	r7, r4
 80018d4:	8007      	strh	r7, [r0, #0]
 80018d6:	7808      	ldrb	r0, [r1, #0]

      if (ep->type != EP_TYPE_ISOC)
 80018d8:	78c9      	ldrb	r1, [r1, #3]
 80018da:	0080      	lsls	r0, r0, #2
 80018dc:	181b      	adds	r3, r3, r0
 80018de:	4871      	ldr	r0, [pc, #452]	; (8001aa4 <USB_ActivateEndpoint+0x25c>)
 80018e0:	2901      	cmp	r1, #1
 80018e2:	d00d      	beq.n	8001900 <USB_ActivateEndpoint+0xb8>
      {
        /* Configure NAK status for the Endpoint */
        PCD_SET_EP_TX_STATUS(USBx, ep->num, USB_EP_TX_NAK);
 80018e4:	8819      	ldrh	r1, [r3, #0]
 80018e6:	4008      	ands	r0, r1
 80018e8:	2120      	movs	r1, #32
      PCD_SET_EP_RX_ADDRESS(USBx, ep->num, ep->pmaadress);
      /*Set the endpoint Receive buffer counter*/
      PCD_SET_EP_RX_CNT(USBx, ep->num, ep->maxpacket);
      PCD_CLEAR_RX_DTOG(USBx, ep->num);
      /* Configure VALID status for the Endpoint*/
      PCD_SET_EP_RX_STATUS(USBx, ep->num, USB_EP_RX_VALID);
 80018ea:	4041      	eors	r1, r0
      {
        /* Configure TX Endpoint to disabled state */
        PCD_SET_EP_TX_STATUS(USBx, ep->num, USB_EP_TX_DIS);
      }

      PCD_SET_EP_RX_STATUS(USBx, ep->num, USB_EP_RX_DIS);
 80018ec:	430a      	orrs	r2, r1
 80018ee:	b292      	uxth	r2, r2
    }
  }

  return ret;
}
 80018f0:	9800      	ldr	r0, [sp, #0]
      PCD_SET_EP_RX_STATUS(USBx, ep->num, USB_EP_RX_DIS);
 80018f2:	801a      	strh	r2, [r3, #0]
}
 80018f4:	bdfe      	pop	{r1, r2, r3, r4, r5, r6, r7, pc}
      wEpRegVal |= USB_EP_INTERRUPT;
 80018f6:	22c0      	movs	r2, #192	; 0xc0
      wEpRegVal |= USB_EP_ISOCHRONOUS;
 80018f8:	00d2      	lsls	r2, r2, #3
 80018fa:	e7b8      	b.n	800186e <USB_ActivateEndpoint+0x26>
 80018fc:	2280      	movs	r2, #128	; 0x80
 80018fe:	e7fb      	b.n	80018f8 <USB_ActivateEndpoint+0xb0>
        PCD_SET_EP_TX_STATUS(USBx, ep->num, USB_EP_TX_DIS);
 8001900:	8819      	ldrh	r1, [r3, #0]
      PCD_SET_EP_RX_STATUS(USBx, ep->num, USB_EP_RX_DIS);
 8001902:	4001      	ands	r1, r0
 8001904:	e7f2      	b.n	80018ec <USB_ActivateEndpoint+0xa4>
      PCD_SET_EP_RX_ADDRESS(USBx, ep->num, ep->pmaadress);
 8001906:	8837      	ldrh	r7, [r6, #0]
 8001908:	9801      	ldr	r0, [sp, #4]
 800190a:	1838      	adds	r0, r7, r0
 800190c:	4f66      	ldr	r7, [pc, #408]	; (8001aa8 <USB_ActivateEndpoint+0x260>)
 800190e:	19c0      	adds	r0, r0, r7
 8001910:	8005      	strh	r5, [r0, #0]
      PCD_SET_EP_RX_CNT(USBx, ep->num, ep->maxpacket);
 8001912:	7808      	ldrb	r0, [r1, #0]
 8001914:	8835      	ldrh	r5, [r6, #0]
 8001916:	00c0      	lsls	r0, r0, #3
 8001918:	4e64      	ldr	r6, [pc, #400]	; (8001aac <USB_ActivateEndpoint+0x264>)
 800191a:	18c0      	adds	r0, r0, r3
 800191c:	1980      	adds	r0, r0, r6
 800191e:	1940      	adds	r0, r0, r5
 8001920:	690d      	ldr	r5, [r1, #16]
 8001922:	2d00      	cmp	r5, #0
 8001924:	d119      	bne.n	800195a <USB_ActivateEndpoint+0x112>
 8001926:	8805      	ldrh	r5, [r0, #0]
 8001928:	4e61      	ldr	r6, [pc, #388]	; (8001ab0 <USB_ActivateEndpoint+0x268>)
 800192a:	402e      	ands	r6, r5
 800192c:	4d61      	ldr	r5, [pc, #388]	; (8001ab4 <USB_ActivateEndpoint+0x26c>)
 800192e:	4335      	orrs	r5, r6
 8001930:	8005      	strh	r5, [r0, #0]
      PCD_CLEAR_RX_DTOG(USBx, ep->num);
 8001932:	7808      	ldrb	r0, [r1, #0]
 8001934:	0080      	lsls	r0, r0, #2
 8001936:	1818      	adds	r0, r3, r0
 8001938:	8805      	ldrh	r5, [r0, #0]
 800193a:	046d      	lsls	r5, r5, #17
 800193c:	d504      	bpl.n	8001948 <USB_ActivateEndpoint+0x100>
 800193e:	8805      	ldrh	r5, [r0, #0]
 8001940:	402c      	ands	r4, r5
 8001942:	4d5d      	ldr	r5, [pc, #372]	; (8001ab8 <USB_ActivateEndpoint+0x270>)
 8001944:	432c      	orrs	r4, r5
 8001946:	8004      	strh	r4, [r0, #0]
      PCD_SET_EP_RX_STATUS(USBx, ep->num, USB_EP_RX_VALID);
 8001948:	7809      	ldrb	r1, [r1, #0]
 800194a:	485c      	ldr	r0, [pc, #368]	; (8001abc <USB_ActivateEndpoint+0x274>)
 800194c:	0089      	lsls	r1, r1, #2
 800194e:	185b      	adds	r3, r3, r1
 8001950:	8819      	ldrh	r1, [r3, #0]
 8001952:	4008      	ands	r0, r1
 8001954:	21c0      	movs	r1, #192	; 0xc0
 8001956:	0189      	lsls	r1, r1, #6
 8001958:	e7c7      	b.n	80018ea <USB_ActivateEndpoint+0xa2>
      PCD_SET_EP_RX_CNT(USBx, ep->num, ep->maxpacket);
 800195a:	2d3e      	cmp	r5, #62	; 0x3e
 800195c:	d806      	bhi.n	800196c <USB_ActivateEndpoint+0x124>
 800195e:	2701      	movs	r7, #1
 8001960:	086e      	lsrs	r6, r5, #1
 8001962:	403d      	ands	r5, r7
 8001964:	1976      	adds	r6, r6, r5
 8001966:	02b6      	lsls	r6, r6, #10
 8001968:	8006      	strh	r6, [r0, #0]
 800196a:	e7e2      	b.n	8001932 <USB_ActivateEndpoint+0xea>
 800196c:	271f      	movs	r7, #31
 800196e:	096e      	lsrs	r6, r5, #5
 8001970:	403d      	ands	r5, r7
 8001972:	426f      	negs	r7, r5
 8001974:	417d      	adcs	r5, r7
 8001976:	1b76      	subs	r6, r6, r5
 8001978:	4d4e      	ldr	r5, [pc, #312]	; (8001ab4 <USB_ActivateEndpoint+0x26c>)
 800197a:	02b6      	lsls	r6, r6, #10
 800197c:	432e      	orrs	r6, r5
 800197e:	e7f3      	b.n	8001968 <USB_ActivateEndpoint+0x120>
    PCD_SET_EP_DBUF(USBx, ep->num);
 8001980:	0080      	lsls	r0, r0, #2
 8001982:	1818      	adds	r0, r3, r0
 8001984:	8805      	ldrh	r5, [r0, #0]
 8001986:	403d      	ands	r5, r7
 8001988:	4f4d      	ldr	r7, [pc, #308]	; (8001ac0 <USB_ActivateEndpoint+0x278>)
 800198a:	433d      	orrs	r5, r7
 800198c:	8005      	strh	r5, [r0, #0]
    PCD_SET_EP_DBUF_ADDR(USBx, ep->num, ep->pmaaddr0, ep->pmaaddr1);
 800198e:	7808      	ldrb	r0, [r1, #0]
 8001990:	8835      	ldrh	r5, [r6, #0]
 8001992:	00c0      	lsls	r0, r0, #3
 8001994:	1940      	adds	r0, r0, r5
 8001996:	2580      	movs	r5, #128	; 0x80
 8001998:	18c0      	adds	r0, r0, r3
 800199a:	00ed      	lsls	r5, r5, #3
 800199c:	1940      	adds	r0, r0, r5
 800199e:	890d      	ldrh	r5, [r1, #8]
 80019a0:	086d      	lsrs	r5, r5, #1
 80019a2:	006d      	lsls	r5, r5, #1
 80019a4:	8005      	strh	r5, [r0, #0]
 80019a6:	8835      	ldrh	r5, [r6, #0]
 80019a8:	4e3e      	ldr	r6, [pc, #248]	; (8001aa4 <USB_ActivateEndpoint+0x25c>)
 80019aa:	7808      	ldrb	r0, [r1, #0]
 80019ac:	46b4      	mov	ip, r6
 80019ae:	2680      	movs	r6, #128	; 0x80
 80019b0:	00c0      	lsls	r0, r0, #3
 80019b2:	1940      	adds	r0, r0, r5
 80019b4:	4d3c      	ldr	r5, [pc, #240]	; (8001aa8 <USB_ActivateEndpoint+0x260>)
 80019b6:	18c0      	adds	r0, r0, r3
 80019b8:	1940      	adds	r0, r0, r5
 80019ba:	894d      	ldrh	r5, [r1, #10]
 80019bc:	01f6      	lsls	r6, r6, #7
 80019be:	086d      	lsrs	r5, r5, #1
 80019c0:	006d      	lsls	r5, r5, #1
 80019c2:	8005      	strh	r5, [r0, #0]
 80019c4:	7808      	ldrb	r0, [r1, #0]
    if (ep->is_in == 0U)
 80019c6:	784d      	ldrb	r5, [r1, #1]
      PCD_CLEAR_RX_DTOG(USBx, ep->num);
 80019c8:	0080      	lsls	r0, r0, #2
 80019ca:	1818      	adds	r0, r3, r0
    if (ep->is_in == 0U)
 80019cc:	2d00      	cmp	r5, #0
 80019ce:	d12d      	bne.n	8001a2c <USB_ActivateEndpoint+0x1e4>
      PCD_CLEAR_RX_DTOG(USBx, ep->num);
 80019d0:	8805      	ldrh	r5, [r0, #0]
 80019d2:	4235      	tst	r5, r6
 80019d4:	d004      	beq.n	80019e0 <USB_ActivateEndpoint+0x198>
 80019d6:	8805      	ldrh	r5, [r0, #0]
 80019d8:	4e37      	ldr	r6, [pc, #220]	; (8001ab8 <USB_ActivateEndpoint+0x270>)
 80019da:	4025      	ands	r5, r4
 80019dc:	4335      	orrs	r5, r6
 80019de:	8005      	strh	r5, [r0, #0]
      PCD_CLEAR_TX_DTOG(USBx, ep->num);
 80019e0:	7808      	ldrb	r0, [r1, #0]
 80019e2:	4e38      	ldr	r6, [pc, #224]	; (8001ac4 <USB_ActivateEndpoint+0x27c>)
 80019e4:	0080      	lsls	r0, r0, #2
 80019e6:	1818      	adds	r0, r3, r0
 80019e8:	8805      	ldrh	r5, [r0, #0]
 80019ea:	066d      	lsls	r5, r5, #25
 80019ec:	d504      	bpl.n	80019f8 <USB_ActivateEndpoint+0x1b0>
 80019ee:	8805      	ldrh	r5, [r0, #0]
 80019f0:	4025      	ands	r5, r4
 80019f2:	4335      	orrs	r5, r6
 80019f4:	b2ad      	uxth	r5, r5
 80019f6:	8005      	strh	r5, [r0, #0]
      PCD_TX_DTOG(USBx, ep->num);
 80019f8:	7808      	ldrb	r0, [r1, #0]
 80019fa:	0080      	lsls	r0, r0, #2
 80019fc:	1818      	adds	r0, r3, r0
 80019fe:	8805      	ldrh	r5, [r0, #0]
 8001a00:	402c      	ands	r4, r5
 8001a02:	4326      	orrs	r6, r4
 8001a04:	b2b6      	uxth	r6, r6
 8001a06:	8006      	strh	r6, [r0, #0]
      PCD_SET_EP_RX_STATUS(USBx, ep->num, USB_EP_RX_VALID);
 8001a08:	780c      	ldrb	r4, [r1, #0]
 8001a0a:	482c      	ldr	r0, [pc, #176]	; (8001abc <USB_ActivateEndpoint+0x274>)
 8001a0c:	00a4      	lsls	r4, r4, #2
 8001a0e:	191c      	adds	r4, r3, r4
 8001a10:	8825      	ldrh	r5, [r4, #0]
 8001a12:	4005      	ands	r5, r0
 8001a14:	20c0      	movs	r0, #192	; 0xc0
 8001a16:	0180      	lsls	r0, r0, #6
 8001a18:	4068      	eors	r0, r5
 8001a1a:	4310      	orrs	r0, r2
 8001a1c:	b280      	uxth	r0, r0
 8001a1e:	8020      	strh	r0, [r4, #0]
      PCD_SET_EP_TX_STATUS(USBx, ep->num, USB_EP_TX_DIS);
 8001a20:	7809      	ldrb	r1, [r1, #0]
 8001a22:	4660      	mov	r0, ip
 8001a24:	0089      	lsls	r1, r1, #2
 8001a26:	185b      	adds	r3, r3, r1
 8001a28:	8819      	ldrh	r1, [r3, #0]
 8001a2a:	e76a      	b.n	8001902 <USB_ActivateEndpoint+0xba>
      PCD_CLEAR_RX_DTOG(USBx, ep->num);
 8001a2c:	8807      	ldrh	r7, [r0, #0]
 8001a2e:	4d26      	ldr	r5, [pc, #152]	; (8001ac8 <USB_ActivateEndpoint+0x280>)
 8001a30:	4237      	tst	r7, r6
 8001a32:	d004      	beq.n	8001a3e <USB_ActivateEndpoint+0x1f6>
 8001a34:	8806      	ldrh	r6, [r0, #0]
 8001a36:	4026      	ands	r6, r4
 8001a38:	432e      	orrs	r6, r5
 8001a3a:	b2b6      	uxth	r6, r6
 8001a3c:	8006      	strh	r6, [r0, #0]
      PCD_CLEAR_TX_DTOG(USBx, ep->num);
 8001a3e:	7808      	ldrb	r0, [r1, #0]
 8001a40:	0080      	lsls	r0, r0, #2
 8001a42:	1818      	adds	r0, r3, r0
 8001a44:	8806      	ldrh	r6, [r0, #0]
 8001a46:	0676      	lsls	r6, r6, #25
 8001a48:	d504      	bpl.n	8001a54 <USB_ActivateEndpoint+0x20c>
 8001a4a:	8806      	ldrh	r6, [r0, #0]
 8001a4c:	4f14      	ldr	r7, [pc, #80]	; (8001aa0 <USB_ActivateEndpoint+0x258>)
 8001a4e:	4026      	ands	r6, r4
 8001a50:	433e      	orrs	r6, r7
 8001a52:	8006      	strh	r6, [r0, #0]
      PCD_RX_DTOG(USBx, ep->num);
 8001a54:	7808      	ldrb	r0, [r1, #0]
 8001a56:	0080      	lsls	r0, r0, #2
 8001a58:	1818      	adds	r0, r3, r0
 8001a5a:	8806      	ldrh	r6, [r0, #0]
 8001a5c:	4034      	ands	r4, r6
 8001a5e:	4325      	orrs	r5, r4
 8001a60:	b2ad      	uxth	r5, r5
 8001a62:	8005      	strh	r5, [r0, #0]
 8001a64:	7808      	ldrb	r0, [r1, #0]
      if (ep->type != EP_TYPE_ISOC)
 8001a66:	78cc      	ldrb	r4, [r1, #3]
        PCD_SET_EP_TX_STATUS(USBx, ep->num, USB_EP_TX_NAK);
 8001a68:	0080      	lsls	r0, r0, #2
 8001a6a:	1818      	adds	r0, r3, r0
      if (ep->type != EP_TYPE_ISOC)
 8001a6c:	2c01      	cmp	r4, #1
 8001a6e:	d00d      	beq.n	8001a8c <USB_ActivateEndpoint+0x244>
        PCD_SET_EP_TX_STATUS(USBx, ep->num, USB_EP_TX_NAK);
 8001a70:	4664      	mov	r4, ip
 8001a72:	8805      	ldrh	r5, [r0, #0]
 8001a74:	4025      	ands	r5, r4
 8001a76:	2420      	movs	r4, #32
 8001a78:	406c      	eors	r4, r5
        PCD_SET_EP_TX_STATUS(USBx, ep->num, USB_EP_TX_DIS);
 8001a7a:	4314      	orrs	r4, r2
 8001a7c:	b2a4      	uxth	r4, r4
 8001a7e:	8004      	strh	r4, [r0, #0]
      PCD_SET_EP_RX_STATUS(USBx, ep->num, USB_EP_RX_DIS);
 8001a80:	7809      	ldrb	r1, [r1, #0]
 8001a82:	480e      	ldr	r0, [pc, #56]	; (8001abc <USB_ActivateEndpoint+0x274>)
 8001a84:	0089      	lsls	r1, r1, #2
 8001a86:	185b      	adds	r3, r3, r1
 8001a88:	8819      	ldrh	r1, [r3, #0]
 8001a8a:	e73a      	b.n	8001902 <USB_ActivateEndpoint+0xba>
        PCD_SET_EP_TX_STATUS(USBx, ep->num, USB_EP_TX_DIS);
 8001a8c:	4665      	mov	r5, ip
 8001a8e:	8804      	ldrh	r4, [r0, #0]
 8001a90:	402c      	ands	r4, r5
 8001a92:	e7f2      	b.n	8001a7a <USB_ActivateEndpoint+0x232>
 8001a94:	ffff898f 	.word	0xffff898f
 8001a98:	ffff8080 	.word	0xffff8080
 8001a9c:	ffff8f8f 	.word	0xffff8f8f
 8001aa0:	000080c0 	.word	0x000080c0
 8001aa4:	ffff8fbf 	.word	0xffff8fbf
 8001aa8:	00000404 	.word	0x00000404
 8001aac:	00000406 	.word	0x00000406
 8001ab0:	ffff83ff 	.word	0xffff83ff
 8001ab4:	ffff8000 	.word	0xffff8000
 8001ab8:	0000c080 	.word	0x0000c080
 8001abc:	ffffbf8f 	.word	0xffffbf8f
 8001ac0:	00008180 	.word	0x00008180
 8001ac4:	ffff80c0 	.word	0xffff80c0
 8001ac8:	ffffc080 	.word	0xffffc080

08001acc <USB_DeactivateEndpoint>:
  * @param  USBx : Selected device
  * @param  ep: pointer to endpoint structure
  * @retval HAL status
  */
HAL_StatusTypeDef USB_DeactivateEndpoint(USB_TypeDef *USBx, USB_EPTypeDef *ep)
{
 8001acc:	b5f0      	push	{r4, r5, r6, r7, lr}
 8001ace:	780b      	ldrb	r3, [r1, #0]
  if (ep->doublebuffer == 0U)
 8001ad0:	7b0d      	ldrb	r5, [r1, #12]
 8001ad2:	009b      	lsls	r3, r3, #2
 8001ad4:	784c      	ldrb	r4, [r1, #1]
 8001ad6:	18c3      	adds	r3, r0, r3
 8001ad8:	4a3f      	ldr	r2, [pc, #252]	; (8001bd8 <USB_DeactivateEndpoint+0x10c>)
 8001ada:	2d00      	cmp	r5, #0
 8001adc:	d121      	bne.n	8001b22 <USB_DeactivateEndpoint+0x56>
  {
    if (ep->is_in != 0U)
 8001ade:	2c00      	cmp	r4, #0
 8001ae0:	d010      	beq.n	8001b04 <USB_DeactivateEndpoint+0x38>
    {
      PCD_CLEAR_TX_DTOG(USBx, ep->num);
 8001ae2:	881c      	ldrh	r4, [r3, #0]
 8001ae4:	0664      	lsls	r4, r4, #25
 8001ae6:	d505      	bpl.n	8001af4 <USB_DeactivateEndpoint+0x28>
 8001ae8:	881c      	ldrh	r4, [r3, #0]
 8001aea:	4d3c      	ldr	r5, [pc, #240]	; (8001bdc <USB_DeactivateEndpoint+0x110>)
 8001aec:	402c      	ands	r4, r5
 8001aee:	4d3c      	ldr	r5, [pc, #240]	; (8001be0 <USB_DeactivateEndpoint+0x114>)
 8001af0:	432c      	orrs	r4, r5
 8001af2:	801c      	strh	r4, [r3, #0]
      /* Configure DISABLE status for the Endpoint*/
      PCD_SET_EP_TX_STATUS(USBx, ep->num, USB_EP_TX_DIS);
 8001af4:	780b      	ldrb	r3, [r1, #0]
 8001af6:	493b      	ldr	r1, [pc, #236]	; (8001be4 <USB_DeactivateEndpoint+0x118>)
 8001af8:	009b      	lsls	r3, r3, #2
 8001afa:	18c0      	adds	r0, r0, r3
 8001afc:	8803      	ldrh	r3, [r0, #0]
      PCD_CLEAR_RX_DTOG(USBx, ep->num);
      PCD_CLEAR_TX_DTOG(USBx, ep->num);
      PCD_RX_DTOG(USBx, ep->num);
      /* Configure DISABLE status for the Endpoint*/
      PCD_SET_EP_TX_STATUS(USBx, ep->num, USB_EP_TX_DIS);
      PCD_SET_EP_RX_STATUS(USBx, ep->num, USB_EP_RX_DIS);
 8001afe:	400b      	ands	r3, r1
 8001b00:	431a      	orrs	r2, r3
 8001b02:	e03f      	b.n	8001b84 <USB_DeactivateEndpoint+0xb8>
      PCD_CLEAR_RX_DTOG(USBx, ep->num);
 8001b04:	881c      	ldrh	r4, [r3, #0]
 8001b06:	0464      	lsls	r4, r4, #17
 8001b08:	d505      	bpl.n	8001b16 <USB_DeactivateEndpoint+0x4a>
 8001b0a:	881c      	ldrh	r4, [r3, #0]
 8001b0c:	4d33      	ldr	r5, [pc, #204]	; (8001bdc <USB_DeactivateEndpoint+0x110>)
 8001b0e:	402c      	ands	r4, r5
 8001b10:	4d35      	ldr	r5, [pc, #212]	; (8001be8 <USB_DeactivateEndpoint+0x11c>)
 8001b12:	432c      	orrs	r4, r5
 8001b14:	801c      	strh	r4, [r3, #0]
      PCD_SET_EP_RX_STATUS(USBx, ep->num, USB_EP_RX_DIS);
 8001b16:	780b      	ldrb	r3, [r1, #0]
 8001b18:	4934      	ldr	r1, [pc, #208]	; (8001bec <USB_DeactivateEndpoint+0x120>)
 8001b1a:	009b      	lsls	r3, r3, #2
 8001b1c:	18c0      	adds	r0, r0, r3
 8001b1e:	8803      	ldrh	r3, [r0, #0]
 8001b20:	e7ed      	b.n	8001afe <USB_DeactivateEndpoint+0x32>
 8001b22:	2680      	movs	r6, #128	; 0x80
 8001b24:	4d2d      	ldr	r5, [pc, #180]	; (8001bdc <USB_DeactivateEndpoint+0x110>)
 8001b26:	4f2f      	ldr	r7, [pc, #188]	; (8001be4 <USB_DeactivateEndpoint+0x118>)
 8001b28:	01f6      	lsls	r6, r6, #7
    if (ep->is_in == 0U)
 8001b2a:	2c00      	cmp	r4, #0
 8001b2c:	d12e      	bne.n	8001b8c <USB_DeactivateEndpoint+0xc0>
      PCD_CLEAR_RX_DTOG(USBx, ep->num);
 8001b2e:	881c      	ldrh	r4, [r3, #0]
 8001b30:	4234      	tst	r4, r6
 8001b32:	d004      	beq.n	8001b3e <USB_DeactivateEndpoint+0x72>
 8001b34:	881c      	ldrh	r4, [r3, #0]
 8001b36:	4e2c      	ldr	r6, [pc, #176]	; (8001be8 <USB_DeactivateEndpoint+0x11c>)
 8001b38:	402c      	ands	r4, r5
 8001b3a:	4334      	orrs	r4, r6
 8001b3c:	801c      	strh	r4, [r3, #0]
      PCD_CLEAR_TX_DTOG(USBx, ep->num);
 8001b3e:	780b      	ldrb	r3, [r1, #0]
 8001b40:	4c2b      	ldr	r4, [pc, #172]	; (8001bf0 <USB_DeactivateEndpoint+0x124>)
 8001b42:	009b      	lsls	r3, r3, #2
 8001b44:	18c3      	adds	r3, r0, r3
 8001b46:	881e      	ldrh	r6, [r3, #0]
 8001b48:	0676      	lsls	r6, r6, #25
 8001b4a:	d504      	bpl.n	8001b56 <USB_DeactivateEndpoint+0x8a>
 8001b4c:	881e      	ldrh	r6, [r3, #0]
 8001b4e:	402e      	ands	r6, r5
 8001b50:	4326      	orrs	r6, r4
 8001b52:	b2b6      	uxth	r6, r6
 8001b54:	801e      	strh	r6, [r3, #0]
      PCD_TX_DTOG(USBx, ep->num);
 8001b56:	780b      	ldrb	r3, [r1, #0]
 8001b58:	009b      	lsls	r3, r3, #2
 8001b5a:	18c3      	adds	r3, r0, r3
 8001b5c:	881e      	ldrh	r6, [r3, #0]
 8001b5e:	4035      	ands	r5, r6
 8001b60:	432c      	orrs	r4, r5
 8001b62:	b2a4      	uxth	r4, r4
 8001b64:	801c      	strh	r4, [r3, #0]
      PCD_SET_EP_RX_STATUS(USBx, ep->num, USB_EP_RX_DIS);
 8001b66:	780c      	ldrb	r4, [r1, #0]
 8001b68:	4d20      	ldr	r5, [pc, #128]	; (8001bec <USB_DeactivateEndpoint+0x120>)
 8001b6a:	00a4      	lsls	r4, r4, #2
 8001b6c:	1904      	adds	r4, r0, r4
 8001b6e:	8823      	ldrh	r3, [r4, #0]
 8001b70:	402b      	ands	r3, r5
 8001b72:	4313      	orrs	r3, r2
 8001b74:	b29b      	uxth	r3, r3
 8001b76:	8023      	strh	r3, [r4, #0]
      PCD_SET_EP_TX_STATUS(USBx, ep->num, USB_EP_TX_DIS);
 8001b78:	780b      	ldrb	r3, [r1, #0]
 8001b7a:	009b      	lsls	r3, r3, #2
 8001b7c:	18c0      	adds	r0, r0, r3
 8001b7e:	8803      	ldrh	r3, [r0, #0]
 8001b80:	401f      	ands	r7, r3
 8001b82:	433a      	orrs	r2, r7
      PCD_SET_EP_RX_STATUS(USBx, ep->num, USB_EP_RX_DIS);
 8001b84:	b292      	uxth	r2, r2
 8001b86:	8002      	strh	r2, [r0, #0]
    }
  }

  return HAL_OK;
}
 8001b88:	2000      	movs	r0, #0
 8001b8a:	bdf0      	pop	{r4, r5, r6, r7, pc}
      PCD_CLEAR_RX_DTOG(USBx, ep->num);
 8001b8c:	881c      	ldrh	r4, [r3, #0]
 8001b8e:	4234      	tst	r4, r6
 8001b90:	d005      	beq.n	8001b9e <USB_DeactivateEndpoint+0xd2>
 8001b92:	881e      	ldrh	r6, [r3, #0]
 8001b94:	4c17      	ldr	r4, [pc, #92]	; (8001bf4 <USB_DeactivateEndpoint+0x128>)
 8001b96:	402e      	ands	r6, r5
 8001b98:	4326      	orrs	r6, r4
 8001b9a:	b2b6      	uxth	r6, r6
 8001b9c:	801e      	strh	r6, [r3, #0]
      PCD_CLEAR_TX_DTOG(USBx, ep->num);
 8001b9e:	780b      	ldrb	r3, [r1, #0]
 8001ba0:	009b      	lsls	r3, r3, #2
 8001ba2:	18c3      	adds	r3, r0, r3
 8001ba4:	881e      	ldrh	r6, [r3, #0]
 8001ba6:	0674      	lsls	r4, r6, #25
 8001ba8:	d504      	bpl.n	8001bb4 <USB_DeactivateEndpoint+0xe8>
 8001baa:	881e      	ldrh	r6, [r3, #0]
 8001bac:	4c0c      	ldr	r4, [pc, #48]	; (8001be0 <USB_DeactivateEndpoint+0x114>)
 8001bae:	402e      	ands	r6, r5
 8001bb0:	4326      	orrs	r6, r4
 8001bb2:	801e      	strh	r6, [r3, #0]
      PCD_RX_DTOG(USBx, ep->num);
 8001bb4:	780b      	ldrb	r3, [r1, #0]
 8001bb6:	4c0f      	ldr	r4, [pc, #60]	; (8001bf4 <USB_DeactivateEndpoint+0x128>)
 8001bb8:	009b      	lsls	r3, r3, #2
 8001bba:	18c3      	adds	r3, r0, r3
 8001bbc:	881e      	ldrh	r6, [r3, #0]
 8001bbe:	4035      	ands	r5, r6
 8001bc0:	432c      	orrs	r4, r5
 8001bc2:	b2a4      	uxth	r4, r4
 8001bc4:	801c      	strh	r4, [r3, #0]
      PCD_SET_EP_TX_STATUS(USBx, ep->num, USB_EP_TX_DIS);
 8001bc6:	780b      	ldrb	r3, [r1, #0]
 8001bc8:	009b      	lsls	r3, r3, #2
 8001bca:	18c3      	adds	r3, r0, r3
 8001bcc:	881c      	ldrh	r4, [r3, #0]
 8001bce:	4027      	ands	r7, r4
 8001bd0:	4317      	orrs	r7, r2
 8001bd2:	b2bf      	uxth	r7, r7
 8001bd4:	801f      	strh	r7, [r3, #0]
 8001bd6:	e79e      	b.n	8001b16 <USB_DeactivateEndpoint+0x4a>
 8001bd8:	ffff8080 	.word	0xffff8080
 8001bdc:	ffff8f8f 	.word	0xffff8f8f
 8001be0:	000080c0 	.word	0x000080c0
 8001be4:	ffff8fbf 	.word	0xffff8fbf
 8001be8:	0000c080 	.word	0x0000c080
 8001bec:	ffffbf8f 	.word	0xffffbf8f
 8001bf0:	ffff80c0 	.word	0xffff80c0
 8001bf4:	ffffc080 	.word	0xffffc080

08001bf8 <USB_EPSetStall>:
  * @param  USBx : Selected device
  * @param  ep: pointer to endpoint structure
  * @retval HAL status
  */
HAL_StatusTypeDef USB_EPSetStall(USB_TypeDef *USBx, USB_EPTypeDef *ep)
{
 8001bf8:	780b      	ldrb	r3, [r1, #0]
 8001bfa:	4a0b      	ldr	r2, [pc, #44]	; (8001c28 <USB_EPSetStall+0x30>)
 8001bfc:	009b      	lsls	r3, r3, #2
 8001bfe:	18c0      	adds	r0, r0, r3
  if (ep->is_in != 0U)
 8001c00:	784b      	ldrb	r3, [r1, #1]
 8001c02:	2b00      	cmp	r3, #0
 8001c04:	d009      	beq.n	8001c1a <USB_EPSetStall+0x22>
  {
    PCD_SET_EP_TX_STATUS(USBx, ep->num, USB_EP_TX_STALL);
 8001c06:	8803      	ldrh	r3, [r0, #0]
 8001c08:	4908      	ldr	r1, [pc, #32]	; (8001c2c <USB_EPSetStall+0x34>)
 8001c0a:	4019      	ands	r1, r3
 8001c0c:	2310      	movs	r3, #16
  }
  else
  {
    PCD_SET_EP_RX_STATUS(USBx, ep->num, USB_EP_RX_STALL);
 8001c0e:	404b      	eors	r3, r1
 8001c10:	4313      	orrs	r3, r2
 8001c12:	b29b      	uxth	r3, r3
 8001c14:	8003      	strh	r3, [r0, #0]
  }

  return HAL_OK;
}
 8001c16:	2000      	movs	r0, #0
 8001c18:	4770      	bx	lr
    PCD_SET_EP_RX_STATUS(USBx, ep->num, USB_EP_RX_STALL);
 8001c1a:	8803      	ldrh	r3, [r0, #0]
 8001c1c:	4904      	ldr	r1, [pc, #16]	; (8001c30 <USB_EPSetStall+0x38>)
 8001c1e:	4019      	ands	r1, r3
 8001c20:	2380      	movs	r3, #128	; 0x80
 8001c22:	015b      	lsls	r3, r3, #5
 8001c24:	e7f3      	b.n	8001c0e <USB_EPSetStall+0x16>
 8001c26:	46c0      	nop			; (mov r8, r8)
 8001c28:	ffff8080 	.word	0xffff8080
 8001c2c:	ffff8fbf 	.word	0xffff8fbf
 8001c30:	ffffbf8f 	.word	0xffffbf8f

08001c34 <USB_EPClearStall>:
  * @param  ep: pointer to endpoint structure
  * @retval HAL status
  */
HAL_StatusTypeDef USB_EPClearStall(USB_TypeDef *USBx, USB_EPTypeDef *ep)
{
  if (ep->doublebuffer == 0U)
 8001c34:	7b0b      	ldrb	r3, [r1, #12]
{
 8001c36:	b510      	push	{r4, lr}
  if (ep->doublebuffer == 0U)
 8001c38:	2b00      	cmp	r3, #0
 8001c3a:	d11c      	bne.n	8001c76 <USB_EPClearStall+0x42>
 8001c3c:	780b      	ldrb	r3, [r1, #0]
  {
    if (ep->is_in != 0U)
 8001c3e:	784a      	ldrb	r2, [r1, #1]
 8001c40:	009b      	lsls	r3, r3, #2
 8001c42:	18c3      	adds	r3, r0, r3
 8001c44:	2a00      	cmp	r2, #0
 8001c46:	d018      	beq.n	8001c7a <USB_EPClearStall+0x46>
    {
      PCD_CLEAR_TX_DTOG(USBx, ep->num);
 8001c48:	881a      	ldrh	r2, [r3, #0]
 8001c4a:	0652      	lsls	r2, r2, #25
 8001c4c:	d505      	bpl.n	8001c5a <USB_EPClearStall+0x26>
 8001c4e:	881a      	ldrh	r2, [r3, #0]
 8001c50:	4c13      	ldr	r4, [pc, #76]	; (8001ca0 <USB_EPClearStall+0x6c>)
 8001c52:	4022      	ands	r2, r4
 8001c54:	4c13      	ldr	r4, [pc, #76]	; (8001ca4 <USB_EPClearStall+0x70>)
 8001c56:	4322      	orrs	r2, r4
 8001c58:	801a      	strh	r2, [r3, #0]

      if (ep->type != EP_TYPE_ISOC)
 8001c5a:	78cb      	ldrb	r3, [r1, #3]
 8001c5c:	2b01      	cmp	r3, #1
 8001c5e:	d00a      	beq.n	8001c76 <USB_EPClearStall+0x42>
      {
        /* Configure NAK status for the Endpoint */
        PCD_SET_EP_TX_STATUS(USBx, ep->num, USB_EP_TX_NAK);
 8001c60:	780b      	ldrb	r3, [r1, #0]
 8001c62:	4a11      	ldr	r2, [pc, #68]	; (8001ca8 <USB_EPClearStall+0x74>)
 8001c64:	009b      	lsls	r3, r3, #2
 8001c66:	18c0      	adds	r0, r0, r3
 8001c68:	8803      	ldrh	r3, [r0, #0]
 8001c6a:	401a      	ands	r2, r3
 8001c6c:	2320      	movs	r3, #32
    else
    {
      PCD_CLEAR_RX_DTOG(USBx, ep->num);

      /* Configure VALID status for the Endpoint*/
      PCD_SET_EP_RX_STATUS(USBx, ep->num, USB_EP_RX_VALID);
 8001c6e:	4053      	eors	r3, r2
 8001c70:	4a0e      	ldr	r2, [pc, #56]	; (8001cac <USB_EPClearStall+0x78>)
 8001c72:	4313      	orrs	r3, r2
 8001c74:	8003      	strh	r3, [r0, #0]
    }
  }

  return HAL_OK;
}
 8001c76:	2000      	movs	r0, #0
 8001c78:	bd10      	pop	{r4, pc}
      PCD_CLEAR_RX_DTOG(USBx, ep->num);
 8001c7a:	881a      	ldrh	r2, [r3, #0]
 8001c7c:	0452      	lsls	r2, r2, #17
 8001c7e:	d505      	bpl.n	8001c8c <USB_EPClearStall+0x58>
 8001c80:	881a      	ldrh	r2, [r3, #0]
 8001c82:	4c07      	ldr	r4, [pc, #28]	; (8001ca0 <USB_EPClearStall+0x6c>)
 8001c84:	4022      	ands	r2, r4
 8001c86:	4c0a      	ldr	r4, [pc, #40]	; (8001cb0 <USB_EPClearStall+0x7c>)
 8001c88:	4322      	orrs	r2, r4
 8001c8a:	801a      	strh	r2, [r3, #0]
      PCD_SET_EP_RX_STATUS(USBx, ep->num, USB_EP_RX_VALID);
 8001c8c:	780b      	ldrb	r3, [r1, #0]
 8001c8e:	4a09      	ldr	r2, [pc, #36]	; (8001cb4 <USB_EPClearStall+0x80>)
 8001c90:	009b      	lsls	r3, r3, #2
 8001c92:	18c0      	adds	r0, r0, r3
 8001c94:	8803      	ldrh	r3, [r0, #0]
 8001c96:	401a      	ands	r2, r3
 8001c98:	23c0      	movs	r3, #192	; 0xc0
 8001c9a:	019b      	lsls	r3, r3, #6
 8001c9c:	e7e7      	b.n	8001c6e <USB_EPClearStall+0x3a>
 8001c9e:	46c0      	nop			; (mov r8, r8)
 8001ca0:	ffff8f8f 	.word	0xffff8f8f
 8001ca4:	000080c0 	.word	0x000080c0
 8001ca8:	ffff8fbf 	.word	0xffff8fbf
 8001cac:	00008080 	.word	0x00008080
 8001cb0:	0000c080 	.word	0x0000c080
 8001cb4:	ffffbf8f 	.word	0xffffbf8f

08001cb8 <USB_SetDevAddress>:
  *          This parameter can be a value from 0 to 255
  * @retval HAL status
  */
HAL_StatusTypeDef  USB_SetDevAddress(USB_TypeDef *USBx, uint8_t address)
{
  if (address == 0U)
 8001cb8:	2900      	cmp	r1, #0
 8001cba:	d102      	bne.n	8001cc2 <USB_SetDevAddress+0xa>
  {
    /* set device address and enable function */
    USBx->DADDR = USB_DADDR_EF;
 8001cbc:	2380      	movs	r3, #128	; 0x80
 8001cbe:	304c      	adds	r0, #76	; 0x4c
 8001cc0:	8003      	strh	r3, [r0, #0]
  }

  return HAL_OK;
}
 8001cc2:	2000      	movs	r0, #0
 8001cc4:	4770      	bx	lr

08001cc6 <USB_DevConnect>:
  * @retval HAL status
  */
HAL_StatusTypeDef  USB_DevConnect(USB_TypeDef *USBx)
{
  /* Enabling DP Pull-UP bit to Connect internal PU resistor on USB DP line */
  USBx->BCDR |= USB_BCDR_DPPU;
 8001cc6:	2280      	movs	r2, #128	; 0x80
 8001cc8:	3058      	adds	r0, #88	; 0x58
 8001cca:	8803      	ldrh	r3, [r0, #0]
 8001ccc:	0212      	lsls	r2, r2, #8
 8001cce:	4313      	orrs	r3, r2
 8001cd0:	8003      	strh	r3, [r0, #0]

  return HAL_OK;
}
 8001cd2:	2000      	movs	r0, #0
 8001cd4:	4770      	bx	lr

08001cd6 <USB_ReadInterrupts>:
  */
uint32_t  USB_ReadInterrupts(USB_TypeDef *USBx)
{
  uint32_t tmpreg;

  tmpreg = USBx->ISTR;
 8001cd6:	3006      	adds	r0, #6
 8001cd8:	8fc0      	ldrh	r0, [r0, #62]	; 0x3e
 8001cda:	b280      	uxth	r0, r0
  return tmpreg;
}
 8001cdc:	4770      	bx	lr

08001cde <USB_EP0_OutStart>:
  /* NOTE : - This function is not required by USB Device FS peripheral, it is used
              only by USB OTG FS peripheral.
            - This function is added to ensure compatibility across platforms.
   */
  return HAL_OK;
}
 8001cde:	2000      	movs	r0, #0
 8001ce0:	4770      	bx	lr

08001ce2 <USB_WritePMA>:
  * @param   wPMABufAddr address into PMA.
  * @param   wNBytes: no. of bytes to be copied.
  * @retval None
  */
void USB_WritePMA(USB_TypeDef *USBx, uint8_t *pbUsrBuf, uint16_t wPMABufAddr, uint16_t wNBytes)
{
 8001ce2:	b530      	push	{r4, r5, lr}
  uint32_t BaseAddr = (uint32_t)USBx;
  uint32_t i, temp1, temp2;
  __IO uint16_t *pdwVal;
  uint8_t *pBuf = pbUsrBuf;

  pdwVal = (__IO uint16_t *)(BaseAddr + 0x400U + ((uint32_t)wPMABufAddr * PMA_ACCESS));
 8001ce4:	2480      	movs	r4, #128	; 0x80
 8001ce6:	00e4      	lsls	r4, r4, #3
 8001ce8:	1912      	adds	r2, r2, r4
  uint32_t n = ((uint32_t)wNBytes + 1U) >> 1;
 8001cea:	3301      	adds	r3, #1
  pdwVal = (__IO uint16_t *)(BaseAddr + 0x400U + ((uint32_t)wPMABufAddr * PMA_ACCESS));
 8001cec:	1880      	adds	r0, r0, r2
  uint32_t n = ((uint32_t)wNBytes + 1U) >> 1;
 8001cee:	085b      	lsrs	r3, r3, #1
 8001cf0:	1a40      	subs	r0, r0, r1
 8001cf2:	1844      	adds	r4, r0, r1

  for (i = n; i != 0U; i--)
 8001cf4:	2b00      	cmp	r3, #0
 8001cf6:	d100      	bne.n	8001cfa <USB_WritePMA+0x18>
    pdwVal++;
#endif

    pBuf++;
  }
}
 8001cf8:	bd30      	pop	{r4, r5, pc}
 8001cfa:	784a      	ldrb	r2, [r1, #1]
 8001cfc:	780d      	ldrb	r5, [r1, #0]
 8001cfe:	0212      	lsls	r2, r2, #8
 8001d00:	432a      	orrs	r2, r5
    *pdwVal = (uint16_t)temp2;
 8001d02:	8022      	strh	r2, [r4, #0]
  for (i = n; i != 0U; i--)
 8001d04:	3b01      	subs	r3, #1
    pBuf++;
 8001d06:	3102      	adds	r1, #2
 8001d08:	e7f3      	b.n	8001cf2 <USB_WritePMA+0x10>
	...

08001d0c <USB_EPStartXfer>:
{
 8001d0c:	b5f8      	push	{r3, r4, r5, r6, r7, lr}
  if (ep->is_in == 1U)
 8001d0e:	784c      	ldrb	r4, [r1, #1]
{
 8001d10:	0005      	movs	r5, r0
 8001d12:	000e      	movs	r6, r1
 8001d14:	698a      	ldr	r2, [r1, #24]
 8001d16:	690b      	ldr	r3, [r1, #16]
 8001d18:	7b08      	ldrb	r0, [r1, #12]
  if (ep->is_in == 1U)
 8001d1a:	2c01      	cmp	r4, #1
 8001d1c:	d158      	bne.n	8001dd0 <USB_EPStartXfer+0xc4>
    if (ep->xfer_len > ep->maxpacket)
 8001d1e:	429a      	cmp	r2, r3
 8001d20:	d922      	bls.n	8001d68 <USB_EPStartXfer+0x5c>
      ep->xfer_len -= len;
 8001d22:	1ad2      	subs	r2, r2, r3
 8001d24:	618a      	str	r2, [r1, #24]
 8001d26:	002f      	movs	r7, r5
 8001d28:	6971      	ldr	r1, [r6, #20]
 8001d2a:	b29c      	uxth	r4, r3
 8001d2c:	3750      	adds	r7, #80	; 0x50
    if (ep->doublebuffer == 0U)
 8001d2e:	2800      	cmp	r0, #0
 8001d30:	d11e      	bne.n	8001d70 <USB_EPStartXfer+0x64>
      USB_WritePMA(USBx, ep->xfer_buff, ep->pmaadress, (uint16_t)len);
 8001d32:	88f2      	ldrh	r2, [r6, #6]
 8001d34:	0023      	movs	r3, r4
 8001d36:	0028      	movs	r0, r5
 8001d38:	f7ff ffd3 	bl	8001ce2 <USB_WritePMA>
      PCD_SET_EP_TX_CNT(USBx, ep->num, len);
 8001d3c:	7833      	ldrb	r3, [r6, #0]
 8001d3e:	883a      	ldrh	r2, [r7, #0]
 8001d40:	00db      	lsls	r3, r3, #3
 8001d42:	189b      	adds	r3, r3, r2
 8001d44:	4a5b      	ldr	r2, [pc, #364]	; (8001eb4 <USB_EPStartXfer+0x1a8>)
 8001d46:	18eb      	adds	r3, r5, r3
 8001d48:	189b      	adds	r3, r3, r2
 8001d4a:	801c      	strh	r4, [r3, #0]
    PCD_SET_EP_TX_STATUS(USBx, ep->num, USB_EP_TX_VALID);
 8001d4c:	7833      	ldrb	r3, [r6, #0]
 8001d4e:	4a5a      	ldr	r2, [pc, #360]	; (8001eb8 <USB_EPStartXfer+0x1ac>)
 8001d50:	009b      	lsls	r3, r3, #2
 8001d52:	18ed      	adds	r5, r5, r3
 8001d54:	882b      	ldrh	r3, [r5, #0]
 8001d56:	401a      	ands	r2, r3
 8001d58:	2330      	movs	r3, #48	; 0x30
    PCD_SET_EP_RX_STATUS(USBx, ep->num, USB_EP_RX_VALID);
 8001d5a:	4053      	eors	r3, r2
 8001d5c:	4a57      	ldr	r2, [pc, #348]	; (8001ebc <USB_EPStartXfer+0x1b0>)
}
 8001d5e:	2000      	movs	r0, #0
    PCD_SET_EP_RX_STATUS(USBx, ep->num, USB_EP_RX_VALID);
 8001d60:	4313      	orrs	r3, r2
 8001d62:	b29b      	uxth	r3, r3
 8001d64:	802b      	strh	r3, [r5, #0]
}
 8001d66:	bdf8      	pop	{r3, r4, r5, r6, r7, pc}
      ep->xfer_len = 0U;
 8001d68:	2300      	movs	r3, #0
 8001d6a:	618b      	str	r3, [r1, #24]
 8001d6c:	0013      	movs	r3, r2
 8001d6e:	e7da      	b.n	8001d26 <USB_EPStartXfer+0x1a>
      if ((PCD_GET_ENDPOINT(USBx, ep->num) & USB_EP_DTOG_TX) != 0U)
 8001d70:	7833      	ldrb	r3, [r6, #0]
 8001d72:	009a      	lsls	r2, r3, #2
 8001d74:	18aa      	adds	r2, r5, r2
 8001d76:	8810      	ldrh	r0, [r2, #0]
 8001d78:	00da      	lsls	r2, r3, #3
 8001d7a:	0643      	lsls	r3, r0, #25
 8001d7c:	d517      	bpl.n	8001dae <USB_EPStartXfer+0xa2>
        PCD_SET_EP_DBUF1_CNT(USBx, ep->num, ep->is_in, len);
 8001d7e:	883b      	ldrh	r3, [r7, #0]
 8001d80:	189b      	adds	r3, r3, r2
 8001d82:	4a4f      	ldr	r2, [pc, #316]	; (8001ec0 <USB_EPStartXfer+0x1b4>)
 8001d84:	195b      	adds	r3, r3, r5
 8001d86:	189b      	adds	r3, r3, r2
 8001d88:	801c      	strh	r4, [r3, #0]
        pmabuffer = ep->pmaaddr1;
 8001d8a:	8972      	ldrh	r2, [r6, #10]
      USB_WritePMA(USBx, ep->xfer_buff, pmabuffer, (uint16_t)len);
 8001d8c:	0023      	movs	r3, r4
 8001d8e:	0028      	movs	r0, r5
 8001d90:	f7ff ffa7 	bl	8001ce2 <USB_WritePMA>
      PCD_FreeUserBuffer(USBx, ep->num, ep->is_in);
 8001d94:	7872      	ldrb	r2, [r6, #1]
 8001d96:	7833      	ldrb	r3, [r6, #0]
 8001d98:	2a00      	cmp	r2, #0
 8001d9a:	d110      	bne.n	8001dbe <USB_EPStartXfer+0xb2>
 8001d9c:	009b      	lsls	r3, r3, #2
 8001d9e:	18eb      	adds	r3, r5, r3
 8001da0:	4948      	ldr	r1, [pc, #288]	; (8001ec4 <USB_EPStartXfer+0x1b8>)
 8001da2:	881a      	ldrh	r2, [r3, #0]
 8001da4:	400a      	ands	r2, r1
 8001da6:	4948      	ldr	r1, [pc, #288]	; (8001ec8 <USB_EPStartXfer+0x1bc>)
 8001da8:	430a      	orrs	r2, r1
 8001daa:	801a      	strh	r2, [r3, #0]
 8001dac:	e7ce      	b.n	8001d4c <USB_EPStartXfer+0x40>
        PCD_SET_EP_DBUF0_CNT(USBx, ep->num, ep->is_in, len);
 8001dae:	883b      	ldrh	r3, [r7, #0]
 8001db0:	189b      	adds	r3, r3, r2
 8001db2:	4a40      	ldr	r2, [pc, #256]	; (8001eb4 <USB_EPStartXfer+0x1a8>)
 8001db4:	195b      	adds	r3, r3, r5
 8001db6:	189b      	adds	r3, r3, r2
 8001db8:	801c      	strh	r4, [r3, #0]
        pmabuffer = ep->pmaaddr0;
 8001dba:	8932      	ldrh	r2, [r6, #8]
 8001dbc:	e7e6      	b.n	8001d8c <USB_EPStartXfer+0x80>
      PCD_FreeUserBuffer(USBx, ep->num, ep->is_in);
 8001dbe:	2a01      	cmp	r2, #1
 8001dc0:	d1c4      	bne.n	8001d4c <USB_EPStartXfer+0x40>
 8001dc2:	009b      	lsls	r3, r3, #2
 8001dc4:	18eb      	adds	r3, r5, r3
 8001dc6:	493f      	ldr	r1, [pc, #252]	; (8001ec4 <USB_EPStartXfer+0x1b8>)
 8001dc8:	881a      	ldrh	r2, [r3, #0]
 8001dca:	400a      	ands	r2, r1
 8001dcc:	493f      	ldr	r1, [pc, #252]	; (8001ecc <USB_EPStartXfer+0x1c0>)
 8001dce:	e7eb      	b.n	8001da8 <USB_EPStartXfer+0x9c>
    if (ep->xfer_len > ep->maxpacket)
 8001dd0:	429a      	cmp	r2, r3
 8001dd2:	d915      	bls.n	8001e00 <USB_EPStartXfer+0xf4>
      ep->xfer_len -= len;
 8001dd4:	1ad2      	subs	r2, r2, r3
 8001dd6:	618a      	str	r2, [r1, #24]
 8001dd8:	7831      	ldrb	r1, [r6, #0]
    if (ep->doublebuffer == 0U)
 8001dda:	2800      	cmp	r0, #0
 8001ddc:	d114      	bne.n	8001e08 <USB_EPStartXfer+0xfc>
      PCD_SET_EP_RX_CNT(USBx, ep->num, len);
 8001dde:	002a      	movs	r2, r5
 8001de0:	3250      	adds	r2, #80	; 0x50
 8001de2:	8810      	ldrh	r0, [r2, #0]
 8001de4:	4a36      	ldr	r2, [pc, #216]	; (8001ec0 <USB_EPStartXfer+0x1b4>)
 8001de6:	00c9      	lsls	r1, r1, #3
 8001de8:	18aa      	adds	r2, r5, r2
 8001dea:	1812      	adds	r2, r2, r0
      PCD_SET_EP_DBUF_CNT(USBx, ep->num, ep->is_in, len);
 8001dec:	188a      	adds	r2, r1, r2
 8001dee:	2b00      	cmp	r3, #0
 8001df0:	d139      	bne.n	8001e66 <USB_EPStartXfer+0x15a>
 8001df2:	8813      	ldrh	r3, [r2, #0]
 8001df4:	4936      	ldr	r1, [pc, #216]	; (8001ed0 <USB_EPStartXfer+0x1c4>)
 8001df6:	4019      	ands	r1, r3
 8001df8:	4b36      	ldr	r3, [pc, #216]	; (8001ed4 <USB_EPStartXfer+0x1c8>)
 8001dfa:	430b      	orrs	r3, r1
 8001dfc:	8013      	strh	r3, [r2, #0]
 8001dfe:	e03a      	b.n	8001e76 <USB_EPStartXfer+0x16a>
      ep->xfer_len = 0U;
 8001e00:	2300      	movs	r3, #0
 8001e02:	618b      	str	r3, [r1, #24]
 8001e04:	0013      	movs	r3, r2
 8001e06:	e7e7      	b.n	8001dd8 <USB_EPStartXfer+0xcc>
      PCD_SET_EP_DBUF_CNT(USBx, ep->num, ep->is_in, len);
 8001e08:	2c00      	cmp	r4, #0
 8001e0a:	d117      	bne.n	8001e3c <USB_EPStartXfer+0x130>
 8001e0c:	002a      	movs	r2, r5
 8001e0e:	3250      	adds	r2, #80	; 0x50
 8001e10:	8810      	ldrh	r0, [r2, #0]
 8001e12:	4a28      	ldr	r2, [pc, #160]	; (8001eb4 <USB_EPStartXfer+0x1a8>)
 8001e14:	00c9      	lsls	r1, r1, #3
 8001e16:	18aa      	adds	r2, r5, r2
 8001e18:	1812      	adds	r2, r2, r0
 8001e1a:	1852      	adds	r2, r2, r1
 8001e1c:	2b00      	cmp	r3, #0
 8001e1e:	d105      	bne.n	8001e2c <USB_EPStartXfer+0x120>
 8001e20:	8811      	ldrh	r1, [r2, #0]
 8001e22:	482b      	ldr	r0, [pc, #172]	; (8001ed0 <USB_EPStartXfer+0x1c4>)
 8001e24:	4008      	ands	r0, r1
 8001e26:	492b      	ldr	r1, [pc, #172]	; (8001ed4 <USB_EPStartXfer+0x1c8>)
 8001e28:	4301      	orrs	r1, r0
 8001e2a:	e006      	b.n	8001e3a <USB_EPStartXfer+0x12e>
 8001e2c:	2b3e      	cmp	r3, #62	; 0x3e
 8001e2e:	d811      	bhi.n	8001e54 <USB_EPStartXfer+0x148>
 8001e30:	2001      	movs	r0, #1
 8001e32:	0859      	lsrs	r1, r3, #1
 8001e34:	4018      	ands	r0, r3
 8001e36:	1809      	adds	r1, r1, r0
 8001e38:	0289      	lsls	r1, r1, #10
 8001e3a:	8011      	strh	r1, [r2, #0]
 8001e3c:	7871      	ldrb	r1, [r6, #1]
 8001e3e:	7832      	ldrb	r2, [r6, #0]
 8001e40:	2900      	cmp	r1, #0
 8001e42:	d12b      	bne.n	8001e9c <USB_EPStartXfer+0x190>
 8001e44:	0029      	movs	r1, r5
 8001e46:	3150      	adds	r1, #80	; 0x50
 8001e48:	8808      	ldrh	r0, [r1, #0]
 8001e4a:	491d      	ldr	r1, [pc, #116]	; (8001ec0 <USB_EPStartXfer+0x1b4>)
 8001e4c:	00d2      	lsls	r2, r2, #3
 8001e4e:	1869      	adds	r1, r5, r1
 8001e50:	1809      	adds	r1, r1, r0
 8001e52:	e7cb      	b.n	8001dec <USB_EPStartXfer+0xe0>
 8001e54:	201f      	movs	r0, #31
 8001e56:	4018      	ands	r0, r3
 8001e58:	4244      	negs	r4, r0
 8001e5a:	4160      	adcs	r0, r4
 8001e5c:	0959      	lsrs	r1, r3, #5
 8001e5e:	1a09      	subs	r1, r1, r0
 8001e60:	0289      	lsls	r1, r1, #10
 8001e62:	481c      	ldr	r0, [pc, #112]	; (8001ed4 <USB_EPStartXfer+0x1c8>)
 8001e64:	e7e0      	b.n	8001e28 <USB_EPStartXfer+0x11c>
 8001e66:	2b3e      	cmp	r3, #62	; 0x3e
 8001e68:	d80e      	bhi.n	8001e88 <USB_EPStartXfer+0x17c>
 8001e6a:	2401      	movs	r4, #1
 8001e6c:	0859      	lsrs	r1, r3, #1
 8001e6e:	401c      	ands	r4, r3
 8001e70:	1909      	adds	r1, r1, r4
 8001e72:	0289      	lsls	r1, r1, #10
 8001e74:	8011      	strh	r1, [r2, #0]
    PCD_SET_EP_RX_STATUS(USBx, ep->num, USB_EP_RX_VALID);
 8001e76:	7833      	ldrb	r3, [r6, #0]
 8001e78:	4a17      	ldr	r2, [pc, #92]	; (8001ed8 <USB_EPStartXfer+0x1cc>)
 8001e7a:	009b      	lsls	r3, r3, #2
 8001e7c:	18ed      	adds	r5, r5, r3
 8001e7e:	882b      	ldrh	r3, [r5, #0]
 8001e80:	401a      	ands	r2, r3
 8001e82:	23c0      	movs	r3, #192	; 0xc0
 8001e84:	019b      	lsls	r3, r3, #6
 8001e86:	e768      	b.n	8001d5a <USB_EPStartXfer+0x4e>
      PCD_SET_EP_DBUF_CNT(USBx, ep->num, ep->is_in, len);
 8001e88:	241f      	movs	r4, #31
 8001e8a:	401c      	ands	r4, r3
 8001e8c:	0959      	lsrs	r1, r3, #5
 8001e8e:	4263      	negs	r3, r4
 8001e90:	415c      	adcs	r4, r3
 8001e92:	4b10      	ldr	r3, [pc, #64]	; (8001ed4 <USB_EPStartXfer+0x1c8>)
 8001e94:	1b09      	subs	r1, r1, r4
 8001e96:	0289      	lsls	r1, r1, #10
 8001e98:	4319      	orrs	r1, r3
 8001e9a:	e7eb      	b.n	8001e74 <USB_EPStartXfer+0x168>
 8001e9c:	2901      	cmp	r1, #1
 8001e9e:	d1ea      	bne.n	8001e76 <USB_EPStartXfer+0x16a>
 8001ea0:	0029      	movs	r1, r5
 8001ea2:	3150      	adds	r1, #80	; 0x50
 8001ea4:	8809      	ldrh	r1, [r1, #0]
 8001ea6:	00d2      	lsls	r2, r2, #3
 8001ea8:	1852      	adds	r2, r2, r1
 8001eaa:	4905      	ldr	r1, [pc, #20]	; (8001ec0 <USB_EPStartXfer+0x1b4>)
 8001eac:	18aa      	adds	r2, r5, r2
 8001eae:	1852      	adds	r2, r2, r1
 8001eb0:	e7a4      	b.n	8001dfc <USB_EPStartXfer+0xf0>
 8001eb2:	46c0      	nop			; (mov r8, r8)
 8001eb4:	00000402 	.word	0x00000402
 8001eb8:	ffff8fbf 	.word	0xffff8fbf
 8001ebc:	ffff8080 	.word	0xffff8080
 8001ec0:	00000406 	.word	0x00000406
 8001ec4:	ffff8f8f 	.word	0xffff8f8f
 8001ec8:	000080c0 	.word	0x000080c0
 8001ecc:	0000c080 	.word	0x0000c080
 8001ed0:	ffff83ff 	.word	0xffff83ff
 8001ed4:	ffff8000 	.word	0xffff8000
 8001ed8:	ffffbf8f 	.word	0xffffbf8f

08001edc <USB_ReadPMA>:
  * @param   wPMABufAddr address into PMA.
  * @param   wNBytes: no. of bytes to be copied.
  * @retval None
  */
void USB_ReadPMA(USB_TypeDef *USBx, uint8_t *pbUsrBuf, uint16_t wPMABufAddr, uint16_t wNBytes)
{
 8001edc:	b5f0      	push	{r4, r5, r6, r7, lr}
  uint32_t BaseAddr = (uint32_t)USBx;
  uint32_t i, temp;
  __IO uint16_t *pdwVal;
  uint8_t *pBuf = pbUsrBuf;

  pdwVal = (__IO uint16_t *)(BaseAddr + 0x400U + ((uint32_t)wPMABufAddr * PMA_ACCESS));
 8001ede:	2580      	movs	r5, #128	; 0x80
  uint32_t n = (uint32_t)wNBytes >> 1;
 8001ee0:	085c      	lsrs	r4, r3, #1
  pdwVal = (__IO uint16_t *)(BaseAddr + 0x400U + ((uint32_t)wPMABufAddr * PMA_ACCESS));
 8001ee2:	00ed      	lsls	r5, r5, #3
 8001ee4:	1952      	adds	r2, r2, r5

  for (i = n; i != 0U; i--)
 8001ee6:	0026      	movs	r6, r4
  uint8_t *pBuf = pbUsrBuf;
 8001ee8:	000d      	movs	r5, r1
  pdwVal = (__IO uint16_t *)(BaseAddr + 0x400U + ((uint32_t)wPMABufAddr * PMA_ACCESS));
 8001eea:	1880      	adds	r0, r0, r2
 8001eec:	1a47      	subs	r7, r0, r1
 8001eee:	197a      	adds	r2, r7, r5
  for (i = n; i != 0U; i--)
 8001ef0:	2e00      	cmp	r6, #0
 8001ef2:	d107      	bne.n	8001f04 <USB_ReadPMA+0x28>
 8001ef4:	0064      	lsls	r4, r4, #1
 8001ef6:	1900      	adds	r0, r0, r4
 8001ef8:	1909      	adds	r1, r1, r4
#if PMA_ACCESS > 1U
    pdwVal++;
#endif
  }

  if ((wNBytes % 2U) != 0U)
 8001efa:	07db      	lsls	r3, r3, #31
 8001efc:	d501      	bpl.n	8001f02 <USB_ReadPMA+0x26>
  {
    temp = *pdwVal;
 8001efe:	8803      	ldrh	r3, [r0, #0]
    *pBuf = (uint8_t)((temp >> 0) & 0xFFU);
 8001f00:	700b      	strb	r3, [r1, #0]
  }
}
 8001f02:	bdf0      	pop	{r4, r5, r6, r7, pc}
    temp = *(__IO uint16_t *)pdwVal;
 8001f04:	8812      	ldrh	r2, [r2, #0]
  for (i = n; i != 0U; i--)
 8001f06:	3e01      	subs	r6, #1
    temp = *(__IO uint16_t *)pdwVal;
 8001f08:	b292      	uxth	r2, r2
    *pBuf = (uint8_t)((temp >> 0) & 0xFFU);
 8001f0a:	702a      	strb	r2, [r5, #0]
    *pBuf = (uint8_t)((temp >> 8) & 0xFFU);
 8001f0c:	0a12      	lsrs	r2, r2, #8
 8001f0e:	706a      	strb	r2, [r5, #1]
    pBuf++;
 8001f10:	3502      	adds	r5, #2
 8001f12:	e7ec      	b.n	8001eee <USB_ReadPMA+0x12>

08001f14 <LL_SetSystemCoreClock>:
  * @retval None
  */
void LL_SetSystemCoreClock(uint32_t HCLKFrequency)
{
  /* HCLK clock frequency */
  SystemCoreClock = HCLKFrequency;
 8001f14:	4b01      	ldr	r3, [pc, #4]	; (8001f1c <LL_SetSystemCoreClock+0x8>)
 8001f16:	6018      	str	r0, [r3, #0]
}
 8001f18:	4770      	bx	lr
 8001f1a:	46c0      	nop			; (mov r8, r8)
 8001f1c:	20000000 	.word	0x20000000

08001f20 <USBD_CDC_EP0_RxReady>:
  */
static uint8_t  USBD_CDC_EP0_RxReady(USBD_HandleTypeDef *pdev)
{
  USBD_CDC_HandleTypeDef   *hcdc = (USBD_CDC_HandleTypeDef *) pdev->pClassData;

  if ((pdev->pUserData != NULL) && (hcdc->CmdOpCode != 0xFFU))
 8001f20:	23af      	movs	r3, #175	; 0xaf
 8001f22:	009b      	lsls	r3, r3, #2
 8001f24:	58c3      	ldr	r3, [r0, r3]
{
 8001f26:	b570      	push	{r4, r5, r6, lr}
  if ((pdev->pUserData != NULL) && (hcdc->CmdOpCode != 0xFFU))
 8001f28:	2b00      	cmp	r3, #0
 8001f2a:	d00e      	beq.n	8001f4a <USBD_CDC_EP0_RxReady+0x2a>
  USBD_CDC_HandleTypeDef   *hcdc = (USBD_CDC_HandleTypeDef *) pdev->pClassData;
 8001f2c:	22ae      	movs	r2, #174	; 0xae
  if ((pdev->pUserData != NULL) && (hcdc->CmdOpCode != 0xFFU))
 8001f2e:	2580      	movs	r5, #128	; 0x80
  USBD_CDC_HandleTypeDef   *hcdc = (USBD_CDC_HandleTypeDef *) pdev->pClassData;
 8001f30:	0092      	lsls	r2, r2, #2
 8001f32:	5884      	ldr	r4, [r0, r2]
  if ((pdev->pUserData != NULL) && (hcdc->CmdOpCode != 0xFFU))
 8001f34:	00ad      	lsls	r5, r5, #2
 8001f36:	5d60      	ldrb	r0, [r4, r5]
 8001f38:	28ff      	cmp	r0, #255	; 0xff
 8001f3a:	d006      	beq.n	8001f4a <USBD_CDC_EP0_RxReady+0x2a>
  {
    ((USBD_CDC_ItfTypeDef *)pdev->pUserData)->Control(hcdc->CmdOpCode,
 8001f3c:	4a04      	ldr	r2, [pc, #16]	; (8001f50 <USBD_CDC_EP0_RxReady+0x30>)
 8001f3e:	689b      	ldr	r3, [r3, #8]
 8001f40:	5ca2      	ldrb	r2, [r4, r2]
 8001f42:	0021      	movs	r1, r4
 8001f44:	4798      	blx	r3
                                                      (uint8_t *)(void *)hcdc->data,
                                                      (uint16_t)hcdc->CmdLength);
    hcdc->CmdOpCode = 0xFFU;
 8001f46:	23ff      	movs	r3, #255	; 0xff
 8001f48:	5563      	strb	r3, [r4, r5]

  }
  return USBD_OK;
}
 8001f4a:	2000      	movs	r0, #0
 8001f4c:	bd70      	pop	{r4, r5, r6, pc}
 8001f4e:	46c0      	nop			; (mov r8, r8)
 8001f50:	00000201 	.word	0x00000201

08001f54 <USBD_CDC_GetFSCfgDesc>:
  * @param  length : pointer data length
  * @retval pointer to descriptor buffer
  */
static uint8_t  *USBD_CDC_GetFSCfgDesc(uint16_t *length)
{
  *length = sizeof(USBD_CDC_CfgFSDesc);
 8001f54:	2343      	movs	r3, #67	; 0x43
 8001f56:	8003      	strh	r3, [r0, #0]
  return USBD_CDC_CfgFSDesc;
}
 8001f58:	4800      	ldr	r0, [pc, #0]	; (8001f5c <USBD_CDC_GetFSCfgDesc+0x8>)
 8001f5a:	4770      	bx	lr
 8001f5c:	20000044 	.word	0x20000044

08001f60 <USBD_CDC_GetHSCfgDesc>:
  * @param  length : pointer data length
  * @retval pointer to descriptor buffer
  */
static uint8_t  *USBD_CDC_GetHSCfgDesc(uint16_t *length)
{
  *length = sizeof(USBD_CDC_CfgHSDesc);
 8001f60:	2343      	movs	r3, #67	; 0x43
 8001f62:	8003      	strh	r3, [r0, #0]
  return USBD_CDC_CfgHSDesc;
}
 8001f64:	4800      	ldr	r0, [pc, #0]	; (8001f68 <USBD_CDC_GetHSCfgDesc+0x8>)
 8001f66:	4770      	bx	lr
 8001f68:	20000088 	.word	0x20000088

08001f6c <USBD_CDC_GetOtherSpeedCfgDesc>:
  * @param  length : pointer data length
  * @retval pointer to descriptor buffer
  */
static uint8_t  *USBD_CDC_GetOtherSpeedCfgDesc(uint16_t *length)
{
  *length = sizeof(USBD_CDC_OtherSpeedCfgDesc);
 8001f6c:	2343      	movs	r3, #67	; 0x43
 8001f6e:	8003      	strh	r3, [r0, #0]
  return USBD_CDC_OtherSpeedCfgDesc;
}
 8001f70:	4800      	ldr	r0, [pc, #0]	; (8001f74 <USBD_CDC_GetOtherSpeedCfgDesc+0x8>)
 8001f72:	4770      	bx	lr
 8001f74:	200000d8 	.word	0x200000d8

08001f78 <USBD_CDC_GetDeviceQualifierDescriptor>:
* @param  length : pointer data length
* @retval pointer to descriptor buffer
*/
uint8_t  *USBD_CDC_GetDeviceQualifierDescriptor(uint16_t *length)
{
  *length = sizeof(USBD_CDC_DeviceQualifierDesc);
 8001f78:	230a      	movs	r3, #10
 8001f7a:	8003      	strh	r3, [r0, #0]
  return USBD_CDC_DeviceQualifierDesc;
}
 8001f7c:	4800      	ldr	r0, [pc, #0]	; (8001f80 <USBD_CDC_GetDeviceQualifierDescriptor+0x8>)
 8001f7e:	4770      	bx	lr
 8001f80:	200000cc 	.word	0x200000cc

08001f84 <USBD_CDC_DataOut>:
{
 8001f84:	b570      	push	{r4, r5, r6, lr}
  USBD_CDC_HandleTypeDef   *hcdc = (USBD_CDC_HandleTypeDef *) pdev->pClassData;
 8001f86:	26ae      	movs	r6, #174	; 0xae
 8001f88:	00b6      	lsls	r6, r6, #2
{
 8001f8a:	0004      	movs	r4, r0
  USBD_CDC_HandleTypeDef   *hcdc = (USBD_CDC_HandleTypeDef *) pdev->pClassData;
 8001f8c:	5985      	ldr	r5, [r0, r6]
  hcdc->RxLength = USBD_LL_GetRxDataSize(pdev, epnum);
 8001f8e:	f000 ff93 	bl	8002eb8 <USBD_LL_GetRxDataSize>
 8001f92:	2383      	movs	r3, #131	; 0x83
 8001f94:	009b      	lsls	r3, r3, #2
 8001f96:	50e8      	str	r0, [r5, r3]
  if (pdev->pClassData != NULL)
 8001f98:	59a3      	ldr	r3, [r4, r6]
    return USBD_FAIL;
 8001f9a:	2002      	movs	r0, #2
  if (pdev->pClassData != NULL)
 8001f9c:	2b00      	cmp	r3, #0
 8001f9e:	d00a      	beq.n	8001fb6 <USBD_CDC_DataOut+0x32>
    ((USBD_CDC_ItfTypeDef *)pdev->pUserData)->Receive(hcdc->RxBuffer, &hcdc->RxLength);
 8001fa0:	2383      	movs	r3, #131	; 0x83
 8001fa2:	2281      	movs	r2, #129	; 0x81
 8001fa4:	009b      	lsls	r3, r3, #2
 8001fa6:	18e9      	adds	r1, r5, r3
 8001fa8:	33b0      	adds	r3, #176	; 0xb0
 8001faa:	58e3      	ldr	r3, [r4, r3]
 8001fac:	0092      	lsls	r2, r2, #2
 8001fae:	68db      	ldr	r3, [r3, #12]
 8001fb0:	58a8      	ldr	r0, [r5, r2]
 8001fb2:	4798      	blx	r3
    return USBD_OK;
 8001fb4:	2000      	movs	r0, #0
}
 8001fb6:	bd70      	pop	{r4, r5, r6, pc}

08001fb8 <USBD_CDC_DataIn>:
  USBD_CDC_HandleTypeDef *hcdc = (USBD_CDC_HandleTypeDef *)pdev->pClassData;
 8001fb8:	23ae      	movs	r3, #174	; 0xae
{
 8001fba:	b5f7      	push	{r0, r1, r2, r4, r5, r6, r7, lr}
  USBD_CDC_HandleTypeDef *hcdc = (USBD_CDC_HandleTypeDef *)pdev->pClassData;
 8001fbc:	009b      	lsls	r3, r3, #2
 8001fbe:	58c3      	ldr	r3, [r0, r3]
{
 8001fc0:	0006      	movs	r6, r0
 8001fc2:	000f      	movs	r7, r1
  USBD_CDC_HandleTypeDef *hcdc = (USBD_CDC_HandleTypeDef *)pdev->pClassData;
 8001fc4:	9301      	str	r3, [sp, #4]
    return USBD_FAIL;
 8001fc6:	2002      	movs	r0, #2
  if (pdev->pClassData != NULL)
 8001fc8:	2b00      	cmp	r3, #0
 8001fca:	d017      	beq.n	8001ffc <USBD_CDC_DataIn+0x44>
    if ((pdev->ep_in[epnum].total_length > 0U) && ((pdev->ep_in[epnum].total_length % hpcd->IN_ep[epnum].maxpacket) == 0U))
 8001fcc:	2514      	movs	r5, #20
 8001fce:	434d      	muls	r5, r1
 8001fd0:	1975      	adds	r5, r6, r5
 8001fd2:	69e8      	ldr	r0, [r5, #28]
 8001fd4:	2800      	cmp	r0, #0
 8001fd6:	d012      	beq.n	8001ffe <USBD_CDC_DataIn+0x46>
 8001fd8:	23b0      	movs	r3, #176	; 0xb0
 8001fda:	009b      	lsls	r3, r3, #2
 8001fdc:	58f3      	ldr	r3, [r6, r3]
 8001fde:	014a      	lsls	r2, r1, #5
 8001fe0:	189b      	adds	r3, r3, r2
 8001fe2:	6b99      	ldr	r1, [r3, #56]	; 0x38
 8001fe4:	f7fe f92a 	bl	800023c <__aeabi_uidivmod>
 8001fe8:	1e0c      	subs	r4, r1, #0
 8001fea:	d108      	bne.n	8001ffe <USBD_CDC_DataIn+0x46>
      pdev->ep_in[epnum].total_length = 0U;
 8001fec:	61e9      	str	r1, [r5, #28]
      USBD_LL_Transmit(pdev, epnum, NULL, 0U);
 8001fee:	000b      	movs	r3, r1
 8001ff0:	000a      	movs	r2, r1
 8001ff2:	0030      	movs	r0, r6
 8001ff4:	0039      	movs	r1, r7
 8001ff6:	f000 ff3f 	bl	8002e78 <USBD_LL_Transmit>
    return USBD_OK;
 8001ffa:	0020      	movs	r0, r4
}
 8001ffc:	bdfe      	pop	{r1, r2, r3, r4, r5, r6, r7, pc}
      hcdc->TxState = 0U;
 8001ffe:	2385      	movs	r3, #133	; 0x85
 8002000:	2000      	movs	r0, #0
 8002002:	9a01      	ldr	r2, [sp, #4]
 8002004:	009b      	lsls	r3, r3, #2
 8002006:	50d0      	str	r0, [r2, r3]
 8002008:	e7f8      	b.n	8001ffc <USBD_CDC_DataIn+0x44>
	...

0800200c <USBD_CDC_Setup>:
  USBD_CDC_HandleTypeDef   *hcdc = (USBD_CDC_HandleTypeDef *) pdev->pClassData;
 800200c:	23ae      	movs	r3, #174	; 0xae
{
 800200e:	b5f7      	push	{r0, r1, r2, r4, r5, r6, r7, lr}
  USBD_CDC_HandleTypeDef   *hcdc = (USBD_CDC_HandleTypeDef *) pdev->pClassData;
 8002010:	009b      	lsls	r3, r3, #2
 8002012:	58c7      	ldr	r7, [r0, r3]
  uint8_t ifalt = 0U;
 8002014:	466b      	mov	r3, sp
  uint16_t status_info = 0U;
 8002016:	466a      	mov	r2, sp
{
 8002018:	000e      	movs	r6, r1
  uint8_t ifalt = 0U;
 800201a:	1d59      	adds	r1, r3, #5
 800201c:	2300      	movs	r3, #0
  switch (req->bmRequest & USB_REQ_TYPE_MASK)
 800201e:	2460      	movs	r4, #96	; 0x60
{
 8002020:	0005      	movs	r5, r0
  uint16_t status_info = 0U;
 8002022:	1d90      	adds	r0, r2, #6
  uint8_t ifalt = 0U;
 8002024:	700b      	strb	r3, [r1, #0]
  uint16_t status_info = 0U;
 8002026:	8003      	strh	r3, [r0, #0]
  switch (req->bmRequest & USB_REQ_TYPE_MASK)
 8002028:	7833      	ldrb	r3, [r6, #0]
 800202a:	401c      	ands	r4, r3
 800202c:	d029      	beq.n	8002082 <USBD_CDC_Setup+0x76>
 800202e:	2c20      	cmp	r4, #32
 8002030:	d142      	bne.n	80020b8 <USBD_CDC_Setup+0xac>
      if (req->wLength)
 8002032:	88f4      	ldrh	r4, [r6, #6]
 8002034:	7870      	ldrb	r0, [r6, #1]
 8002036:	2c00      	cmp	r4, #0
 8002038:	d01b      	beq.n	8002072 <USBD_CDC_Setup+0x66>
        if (req->bmRequest & 0x80U)
 800203a:	b25b      	sxtb	r3, r3
 800203c:	2b00      	cmp	r3, #0
 800203e:	da0c      	bge.n	800205a <USBD_CDC_Setup+0x4e>
          ((USBD_CDC_ItfTypeDef *)pdev->pUserData)->Control(req->bRequest,
 8002040:	23af      	movs	r3, #175	; 0xaf
 8002042:	009b      	lsls	r3, r3, #2
 8002044:	58eb      	ldr	r3, [r5, r3]
 8002046:	0022      	movs	r2, r4
 8002048:	0039      	movs	r1, r7
 800204a:	689b      	ldr	r3, [r3, #8]
 800204c:	4798      	blx	r3
          USBD_CtlSendData(pdev, (uint8_t *)(void *)hcdc->data, req->wLength);
 800204e:	0039      	movs	r1, r7
 8002050:	88f2      	ldrh	r2, [r6, #6]
            USBD_CtlSendData(pdev, &ifalt, 1U);
 8002052:	0028      	movs	r0, r5
 8002054:	f000 fca0 	bl	8002998 <USBD_CtlSendData>
 8002058:	e009      	b.n	800206e <USBD_CDC_Setup+0x62>
          hcdc->CmdOpCode = req->bRequest;
 800205a:	2380      	movs	r3, #128	; 0x80
 800205c:	009b      	lsls	r3, r3, #2
 800205e:	54f8      	strb	r0, [r7, r3]
          hcdc->CmdLength = (uint8_t)req->wLength;
 8002060:	4b18      	ldr	r3, [pc, #96]	; (80020c4 <USBD_CDC_Setup+0xb8>)
          USBD_CtlPrepareRx(pdev, (uint8_t *)(void *)hcdc->data, req->wLength);
 8002062:	0022      	movs	r2, r4
          hcdc->CmdLength = (uint8_t)req->wLength;
 8002064:	54fc      	strb	r4, [r7, r3]
          USBD_CtlPrepareRx(pdev, (uint8_t *)(void *)hcdc->data, req->wLength);
 8002066:	0039      	movs	r1, r7
 8002068:	0028      	movs	r0, r5
 800206a:	f000 fcab 	bl	80029c4 <USBD_CtlPrepareRx>
  uint8_t ret = USBD_OK;
 800206e:	2000      	movs	r0, #0
}
 8002070:	bdfe      	pop	{r1, r2, r3, r4, r5, r6, r7, pc}
        ((USBD_CDC_ItfTypeDef *)pdev->pUserData)->Control(req->bRequest,
 8002072:	23af      	movs	r3, #175	; 0xaf
 8002074:	009b      	lsls	r3, r3, #2
 8002076:	58eb      	ldr	r3, [r5, r3]
 8002078:	0022      	movs	r2, r4
 800207a:	689b      	ldr	r3, [r3, #8]
 800207c:	0031      	movs	r1, r6
 800207e:	4798      	blx	r3
 8002080:	e7f5      	b.n	800206e <USBD_CDC_Setup+0x62>
      switch (req->bRequest)
 8002082:	7877      	ldrb	r7, [r6, #1]
 8002084:	2f0a      	cmp	r7, #10
 8002086:	d00b      	beq.n	80020a0 <USBD_CDC_Setup+0x94>
 8002088:	2f0b      	cmp	r7, #11
 800208a:	d010      	beq.n	80020ae <USBD_CDC_Setup+0xa2>
 800208c:	2f00      	cmp	r7, #0
 800208e:	d113      	bne.n	80020b8 <USBD_CDC_Setup+0xac>
          if (pdev->dev_state == USBD_STATE_CONFIGURED)
 8002090:	23a7      	movs	r3, #167	; 0xa7
 8002092:	009b      	lsls	r3, r3, #2
 8002094:	5ceb      	ldrb	r3, [r5, r3]
 8002096:	2b03      	cmp	r3, #3
 8002098:	d10e      	bne.n	80020b8 <USBD_CDC_Setup+0xac>
            USBD_CtlSendData(pdev, (uint8_t *)(void *)&status_info, 2U);
 800209a:	2202      	movs	r2, #2
 800209c:	0001      	movs	r1, r0
 800209e:	e7d8      	b.n	8002052 <USBD_CDC_Setup+0x46>
          if (pdev->dev_state == USBD_STATE_CONFIGURED)
 80020a0:	23a7      	movs	r3, #167	; 0xa7
 80020a2:	009b      	lsls	r3, r3, #2
 80020a4:	5ceb      	ldrb	r3, [r5, r3]
 80020a6:	2b03      	cmp	r3, #3
 80020a8:	d106      	bne.n	80020b8 <USBD_CDC_Setup+0xac>
            USBD_CtlSendData(pdev, &ifalt, 1U);
 80020aa:	2201      	movs	r2, #1
 80020ac:	e7d1      	b.n	8002052 <USBD_CDC_Setup+0x46>
          if (pdev->dev_state != USBD_STATE_CONFIGURED)
 80020ae:	23a7      	movs	r3, #167	; 0xa7
 80020b0:	009b      	lsls	r3, r3, #2
 80020b2:	5ceb      	ldrb	r3, [r5, r3]
 80020b4:	2b03      	cmp	r3, #3
 80020b6:	d0da      	beq.n	800206e <USBD_CDC_Setup+0x62>
          USBD_CtlError(pdev, req);
 80020b8:	0028      	movs	r0, r5
 80020ba:	0031      	movs	r1, r6
 80020bc:	f000 fc45 	bl	800294a <USBD_CtlError>
          ret = USBD_FAIL;
 80020c0:	2002      	movs	r0, #2
          break;
 80020c2:	e7d5      	b.n	8002070 <USBD_CDC_Setup+0x64>
 80020c4:	00000201 	.word	0x00000201

080020c8 <USBD_CDC_DeInit>:
{
 80020c8:	b570      	push	{r4, r5, r6, lr}
 80020ca:	0004      	movs	r4, r0
  pdev->ep_in[CDC_IN_EP & 0xFU].is_used = 0U;
 80020cc:	2500      	movs	r5, #0
  USBD_LL_CloseEP(pdev, CDC_IN_EP);
 80020ce:	2181      	movs	r1, #129	; 0x81
 80020d0:	f000 fe80 	bl	8002dd4 <USBD_LL_CloseEP>
  USBD_LL_CloseEP(pdev, CDC_OUT_EP);
 80020d4:	2101      	movs	r1, #1
  pdev->ep_in[CDC_IN_EP & 0xFU].is_used = 0U;
 80020d6:	62e5      	str	r5, [r4, #44]	; 0x2c
  USBD_LL_CloseEP(pdev, CDC_OUT_EP);
 80020d8:	0020      	movs	r0, r4
 80020da:	f000 fe7b 	bl	8002dd4 <USBD_LL_CloseEP>
  pdev->ep_out[CDC_OUT_EP & 0xFU].is_used = 0U;
 80020de:	0023      	movs	r3, r4
  if (pdev->pClassData != NULL)
 80020e0:	26ae      	movs	r6, #174	; 0xae
  pdev->ep_out[CDC_OUT_EP & 0xFU].is_used = 0U;
 80020e2:	33fc      	adds	r3, #252	; 0xfc
 80020e4:	671d      	str	r5, [r3, #112]	; 0x70
  USBD_LL_CloseEP(pdev, CDC_CMD_EP);
 80020e6:	2182      	movs	r1, #130	; 0x82
 80020e8:	0020      	movs	r0, r4
  if (pdev->pClassData != NULL)
 80020ea:	00b6      	lsls	r6, r6, #2
  USBD_LL_CloseEP(pdev, CDC_CMD_EP);
 80020ec:	f000 fe72 	bl	8002dd4 <USBD_LL_CloseEP>
  if (pdev->pClassData != NULL)
 80020f0:	59a3      	ldr	r3, [r4, r6]
  pdev->ep_in[CDC_CMD_EP & 0xFU].is_used = 0U;
 80020f2:	6425      	str	r5, [r4, #64]	; 0x40
  if (pdev->pClassData != NULL)
 80020f4:	42ab      	cmp	r3, r5
 80020f6:	d008      	beq.n	800210a <USBD_CDC_DeInit+0x42>
    ((USBD_CDC_ItfTypeDef *)pdev->pUserData)->DeInit();
 80020f8:	23af      	movs	r3, #175	; 0xaf
 80020fa:	009b      	lsls	r3, r3, #2
 80020fc:	58e3      	ldr	r3, [r4, r3]
 80020fe:	685b      	ldr	r3, [r3, #4]
 8002100:	4798      	blx	r3
    USBD_free(pdev->pClassData);
 8002102:	59a0      	ldr	r0, [r4, r6]
 8002104:	f000 fee4 	bl	8002ed0 <USBD_static_free>
    pdev->pClassData = NULL;
 8002108:	51a5      	str	r5, [r4, r6]
}
 800210a:	2000      	movs	r0, #0
 800210c:	bd70      	pop	{r4, r5, r6, pc}

0800210e <USBD_CDC_Init>:
{
 800210e:	b5f7      	push	{r0, r1, r2, r4, r5, r6, r7, lr}
 8002110:	0006      	movs	r6, r0
  if (pdev->dev_speed == USBD_SPEED_HIGH)
 8002112:	7c03      	ldrb	r3, [r0, #16]
{
 8002114:	0004      	movs	r4, r0
 8002116:	36fc      	adds	r6, #252	; 0xfc
  if (pdev->dev_speed == USBD_SPEED_HIGH)
 8002118:	2b00      	cmp	r3, #0
 800211a:	d141      	bne.n	80021a0 <USBD_CDC_Init+0x92>
    USBD_LL_OpenEP(pdev, CDC_IN_EP, USBD_EP_TYPE_BULK,
 800211c:	2380      	movs	r3, #128	; 0x80
 800211e:	2202      	movs	r2, #2
 8002120:	009b      	lsls	r3, r3, #2
 8002122:	2181      	movs	r1, #129	; 0x81
 8002124:	f000 fe44 	bl	8002db0 <USBD_LL_OpenEP>
    pdev->ep_in[CDC_IN_EP & 0xFU].is_used = 1U;
 8002128:	2501      	movs	r5, #1
    USBD_LL_OpenEP(pdev, CDC_OUT_EP, USBD_EP_TYPE_BULK,
 800212a:	2380      	movs	r3, #128	; 0x80
    pdev->ep_in[CDC_IN_EP & 0xFU].is_used = 1U;
 800212c:	62e5      	str	r5, [r4, #44]	; 0x2c
    USBD_LL_OpenEP(pdev, CDC_OUT_EP, USBD_EP_TYPE_BULK,
 800212e:	009b      	lsls	r3, r3, #2
    USBD_LL_OpenEP(pdev, CDC_OUT_EP, USBD_EP_TYPE_BULK,
 8002130:	0029      	movs	r1, r5
 8002132:	2202      	movs	r2, #2
 8002134:	0020      	movs	r0, r4
 8002136:	f000 fe3b 	bl	8002db0 <USBD_LL_OpenEP>
    pdev->ep_out[CDC_OUT_EP & 0xFU].is_used = 1U;
 800213a:	6735      	str	r5, [r6, #112]	; 0x70
  USBD_LL_OpenEP(pdev, CDC_CMD_EP, USBD_EP_TYPE_INTR, CDC_CMD_PACKET_SIZE);
 800213c:	2308      	movs	r3, #8
 800213e:	2203      	movs	r2, #3
 8002140:	2182      	movs	r1, #130	; 0x82
 8002142:	0020      	movs	r0, r4
 8002144:	f000 fe34 	bl	8002db0 <USBD_LL_OpenEP>
  pdev->ep_in[CDC_CMD_EP & 0xFU].is_used = 1U;
 8002148:	2601      	movs	r6, #1
  pdev->pClassData = USBD_malloc(sizeof(USBD_CDC_HandleTypeDef));
 800214a:	2087      	movs	r0, #135	; 0x87
  pdev->ep_in[CDC_CMD_EP & 0xFU].is_used = 1U;
 800214c:	6426      	str	r6, [r4, #64]	; 0x40
  pdev->pClassData = USBD_malloc(sizeof(USBD_CDC_HandleTypeDef));
 800214e:	0080      	lsls	r0, r0, #2
 8002150:	25ae      	movs	r5, #174	; 0xae
 8002152:	f000 feb9 	bl	8002ec8 <USBD_static_malloc>
  memset(pdev->pClassData,0,sizeof(USBD_CDC_HandleTypeDef)); // THIS LINE WAS ADDED
 8002156:	2287      	movs	r2, #135	; 0x87
  pdev->pClassData = USBD_malloc(sizeof(USBD_CDC_HandleTypeDef));
 8002158:	00ad      	lsls	r5, r5, #2
 800215a:	5160      	str	r0, [r4, r5]
  memset(pdev->pClassData,0,sizeof(USBD_CDC_HandleTypeDef)); // THIS LINE WAS ADDED
 800215c:	0092      	lsls	r2, r2, #2
 800215e:	2100      	movs	r1, #0
 8002160:	f000 fedc 	bl	8002f1c <memset>
  if (pdev->pClassData == NULL)
 8002164:	5965      	ldr	r5, [r4, r5]
    ret = 1U;
 8002166:	0030      	movs	r0, r6
  if (pdev->pClassData == NULL)
 8002168:	2d00      	cmp	r5, #0
 800216a:	d018      	beq.n	800219e <USBD_CDC_Init+0x90>
    ((USBD_CDC_ItfTypeDef *)pdev->pUserData)->Init();
 800216c:	23af      	movs	r3, #175	; 0xaf
 800216e:	009b      	lsls	r3, r3, #2
 8002170:	58e3      	ldr	r3, [r4, r3]
    hcdc->TxState = 0U;
 8002172:	2700      	movs	r7, #0
    ((USBD_CDC_ItfTypeDef *)pdev->pUserData)->Init();
 8002174:	681b      	ldr	r3, [r3, #0]
 8002176:	4798      	blx	r3
    hcdc->TxState = 0U;
 8002178:	2385      	movs	r3, #133	; 0x85
 800217a:	2281      	movs	r2, #129	; 0x81
 800217c:	009b      	lsls	r3, r3, #2
 800217e:	50ef      	str	r7, [r5, r3]
    hcdc->RxState = 0U;
 8002180:	3304      	adds	r3, #4
 8002182:	50ef      	str	r7, [r5, r3]
    if (pdev->dev_speed == USBD_SPEED_HIGH)
 8002184:	7c23      	ldrb	r3, [r4, #16]
 8002186:	0092      	lsls	r2, r2, #2
 8002188:	9301      	str	r3, [sp, #4]
 800218a:	42bb      	cmp	r3, r7
 800218c:	d111      	bne.n	80021b2 <USBD_CDC_Init+0xa4>
      USBD_LL_PrepareReceive(pdev, CDC_OUT_EP, hcdc->RxBuffer,
 800218e:	2380      	movs	r3, #128	; 0x80
 8002190:	58aa      	ldr	r2, [r5, r2]
 8002192:	009b      	lsls	r3, r3, #2
 8002194:	0031      	movs	r1, r6
 8002196:	0020      	movs	r0, r4
 8002198:	f000 fe7e 	bl	8002e98 <USBD_LL_PrepareReceive>
  uint8_t ret = 0U;
 800219c:	9801      	ldr	r0, [sp, #4]
}
 800219e:	bdfe      	pop	{r1, r2, r3, r4, r5, r6, r7, pc}
    pdev->ep_in[CDC_IN_EP & 0xFU].is_used = 1U;
 80021a0:	2501      	movs	r5, #1
    USBD_LL_OpenEP(pdev, CDC_IN_EP, USBD_EP_TYPE_BULK,
 80021a2:	2340      	movs	r3, #64	; 0x40
 80021a4:	2202      	movs	r2, #2
 80021a6:	2181      	movs	r1, #129	; 0x81
 80021a8:	f000 fe02 	bl	8002db0 <USBD_LL_OpenEP>
    pdev->ep_in[CDC_IN_EP & 0xFU].is_used = 1U;
 80021ac:	62e5      	str	r5, [r4, #44]	; 0x2c
    USBD_LL_OpenEP(pdev, CDC_OUT_EP, USBD_EP_TYPE_BULK,
 80021ae:	2340      	movs	r3, #64	; 0x40
 80021b0:	e7be      	b.n	8002130 <USBD_CDC_Init+0x22>
      USBD_LL_PrepareReceive(pdev, CDC_OUT_EP, hcdc->RxBuffer,
 80021b2:	2340      	movs	r3, #64	; 0x40
 80021b4:	58aa      	ldr	r2, [r5, r2]
 80021b6:	0031      	movs	r1, r6
 80021b8:	0020      	movs	r0, r4
 80021ba:	f000 fe6d 	bl	8002e98 <USBD_LL_PrepareReceive>
  uint8_t ret = 0U;
 80021be:	0038      	movs	r0, r7
 80021c0:	e7ed      	b.n	800219e <USBD_CDC_Init+0x90>

080021c2 <USBD_CDC_RegisterInterface>:
  * @retval status
  */
uint8_t  USBD_CDC_RegisterInterface(USBD_HandleTypeDef   *pdev,
                                    USBD_CDC_ItfTypeDef *fops)
{
  uint8_t  ret = USBD_FAIL;
 80021c2:	2302      	movs	r3, #2

  if (fops != NULL)
 80021c4:	2900      	cmp	r1, #0
 80021c6:	d003      	beq.n	80021d0 <USBD_CDC_RegisterInterface+0xe>
  {
    pdev->pUserData = fops;
 80021c8:	23af      	movs	r3, #175	; 0xaf
 80021ca:	009b      	lsls	r3, r3, #2
 80021cc:	50c1      	str	r1, [r0, r3]
    ret = USBD_OK;
 80021ce:	2300      	movs	r3, #0
  }

  return ret;
}
 80021d0:	0018      	movs	r0, r3
 80021d2:	4770      	bx	lr

080021d4 <USBD_CDC_SetTxBuffer>:
  */
uint8_t  USBD_CDC_SetTxBuffer(USBD_HandleTypeDef   *pdev,
                              uint8_t  *pbuff,
                              uint16_t length)
{
  USBD_CDC_HandleTypeDef   *hcdc = (USBD_CDC_HandleTypeDef *) pdev->pClassData;
 80021d4:	23ae      	movs	r3, #174	; 0xae
 80021d6:	009b      	lsls	r3, r3, #2
 80021d8:	58c3      	ldr	r3, [r0, r3]

  hcdc->TxBuffer = pbuff;
 80021da:	2082      	movs	r0, #130	; 0x82
 80021dc:	0080      	lsls	r0, r0, #2
 80021de:	5019      	str	r1, [r3, r0]
  hcdc->TxLength = length;
 80021e0:	2184      	movs	r1, #132	; 0x84
 80021e2:	0089      	lsls	r1, r1, #2

  return USBD_OK;
}
 80021e4:	2000      	movs	r0, #0
  hcdc->TxLength = length;
 80021e6:	505a      	str	r2, [r3, r1]
}
 80021e8:	4770      	bx	lr

080021ea <USBD_CDC_SetRxBuffer>:
uint8_t  USBD_CDC_SetRxBuffer(USBD_HandleTypeDef   *pdev,
                              uint8_t  *pbuff)
{
  USBD_CDC_HandleTypeDef   *hcdc = (USBD_CDC_HandleTypeDef *) pdev->pClassData;

  hcdc->RxBuffer = pbuff;
 80021ea:	23ae      	movs	r3, #174	; 0xae
 80021ec:	009b      	lsls	r3, r3, #2
 80021ee:	58c2      	ldr	r2, [r0, r3]
 80021f0:	3bb4      	subs	r3, #180	; 0xb4

  return USBD_OK;
}
 80021f2:	2000      	movs	r0, #0
  hcdc->RxBuffer = pbuff;
 80021f4:	50d1      	str	r1, [r2, r3]
}
 80021f6:	4770      	bx	lr

080021f8 <USBD_CDC_TransmitPacket>:
  * @param  pdev: device instance
  * @retval status
  */
uint8_t  USBD_CDC_TransmitPacket(USBD_HandleTypeDef *pdev)
{
  USBD_CDC_HandleTypeDef   *hcdc = (USBD_CDC_HandleTypeDef *) pdev->pClassData;
 80021f8:	23ae      	movs	r3, #174	; 0xae
 80021fa:	009b      	lsls	r3, r3, #2
 80021fc:	58c2      	ldr	r2, [r0, r3]
{
 80021fe:	b510      	push	{r4, lr}
      return USBD_BUSY;
    }
  }
  else
  {
    return USBD_FAIL;
 8002200:	2302      	movs	r3, #2
  if (pdev->pClassData != NULL)
 8002202:	2a00      	cmp	r2, #0
 8002204:	d012      	beq.n	800222c <USBD_CDC_TransmitPacket+0x34>
    if (hcdc->TxState == 0U)
 8002206:	2185      	movs	r1, #133	; 0x85
 8002208:	0089      	lsls	r1, r1, #2
 800220a:	5854      	ldr	r4, [r2, r1]
 800220c:	3b01      	subs	r3, #1
 800220e:	2c00      	cmp	r4, #0
 8002210:	d10c      	bne.n	800222c <USBD_CDC_TransmitPacket+0x34>
      hcdc->TxState = 1U;
 8002212:	5053      	str	r3, [r2, r1]
      pdev->ep_in[CDC_IN_EP & 0xFU].total_length = hcdc->TxLength;
 8002214:	2384      	movs	r3, #132	; 0x84
 8002216:	009b      	lsls	r3, r3, #2
 8002218:	58d3      	ldr	r3, [r2, r3]
      USBD_LL_Transmit(pdev, CDC_IN_EP, hcdc->TxBuffer,
 800221a:	390c      	subs	r1, #12
 800221c:	5852      	ldr	r2, [r2, r1]
 800221e:	3988      	subs	r1, #136	; 0x88
      pdev->ep_in[CDC_IN_EP & 0xFU].total_length = hcdc->TxLength;
 8002220:	6303      	str	r3, [r0, #48]	; 0x30
      USBD_LL_Transmit(pdev, CDC_IN_EP, hcdc->TxBuffer,
 8002222:	39ff      	subs	r1, #255	; 0xff
 8002224:	b29b      	uxth	r3, r3
 8002226:	f000 fe27 	bl	8002e78 <USBD_LL_Transmit>
      return USBD_OK;
 800222a:	0023      	movs	r3, r4
  }
}
 800222c:	0018      	movs	r0, r3
 800222e:	bd10      	pop	{r4, pc}

08002230 <USBD_CDC_ReceivePacket>:
  * @param  pdev: device instance
  * @retval status
  */
uint8_t  USBD_CDC_ReceivePacket(USBD_HandleTypeDef *pdev)
{
  USBD_CDC_HandleTypeDef   *hcdc = (USBD_CDC_HandleTypeDef *) pdev->pClassData;
 8002230:	23ae      	movs	r3, #174	; 0xae
 8002232:	009b      	lsls	r3, r3, #2
 8002234:	58c2      	ldr	r2, [r0, r3]
{
 8002236:	b510      	push	{r4, lr}
    }
    return USBD_OK;
  }
  else
  {
    return USBD_FAIL;
 8002238:	2402      	movs	r4, #2
  if (pdev->pClassData != NULL)
 800223a:	2a00      	cmp	r2, #0
 800223c:	d008      	beq.n	8002250 <USBD_CDC_ReceivePacket+0x20>
    if (pdev->dev_speed == USBD_SPEED_HIGH)
 800223e:	7c04      	ldrb	r4, [r0, #16]
 8002240:	3bb4      	subs	r3, #180	; 0xb4
 8002242:	58d2      	ldr	r2, [r2, r3]
 8002244:	2c00      	cmp	r4, #0
 8002246:	d105      	bne.n	8002254 <USBD_CDC_ReceivePacket+0x24>
      USBD_LL_PrepareReceive(pdev,
 8002248:	3b04      	subs	r3, #4
 800224a:	2101      	movs	r1, #1
 800224c:	f000 fe24 	bl	8002e98 <USBD_LL_PrepareReceive>
  }
}
 8002250:	0020      	movs	r0, r4
 8002252:	bd10      	pop	{r4, pc}
      USBD_LL_PrepareReceive(pdev,
 8002254:	2340      	movs	r3, #64	; 0x40
 8002256:	2101      	movs	r1, #1
 8002258:	f000 fe1e 	bl	8002e98 <USBD_LL_PrepareReceive>
    return USBD_OK;
 800225c:	2400      	movs	r4, #0
 800225e:	e7f7      	b.n	8002250 <USBD_CDC_ReceivePacket+0x20>

08002260 <USBD_Init>:
* @param  id: Low level core index
* @retval None
*/
USBD_StatusTypeDef USBD_Init(USBD_HandleTypeDef *pdev,
                             USBD_DescriptorsTypeDef *pdesc, uint8_t id)
{
 8002260:	b510      	push	{r4, lr}
  if (pdev == NULL)
  {
#if (USBD_DEBUG_LEVEL > 1U)
    USBD_ErrLog("Invalid Device handle");
#endif
    return USBD_FAIL;
 8002262:	2302      	movs	r3, #2
  if (pdev == NULL)
 8002264:	2800      	cmp	r0, #0
 8002266:	d013      	beq.n	8002290 <USBD_Init+0x30>
  }

  /* Unlink previous class*/
  if (pdev->pClass != NULL)
 8002268:	23ad      	movs	r3, #173	; 0xad
 800226a:	009b      	lsls	r3, r3, #2
 800226c:	58c4      	ldr	r4, [r0, r3]
 800226e:	2c00      	cmp	r4, #0
 8002270:	d001      	beq.n	8002276 <USBD_Init+0x16>
  {
    pdev->pClass = NULL;
 8002272:	2400      	movs	r4, #0
 8002274:	50c4      	str	r4, [r0, r3]
  }

  /* Assign USBD Descriptors */
  if (pdesc != NULL)
 8002276:	2900      	cmp	r1, #0
 8002278:	d002      	beq.n	8002280 <USBD_Init+0x20>
  {
    pdev->pDesc = pdesc;
 800227a:	23ac      	movs	r3, #172	; 0xac
 800227c:	009b      	lsls	r3, r3, #2
 800227e:	50c1      	str	r1, [r0, r3]
  }

  /* Set Device initial State */
  pdev->dev_state = USBD_STATE_DEFAULT;
 8002280:	23a7      	movs	r3, #167	; 0xa7
 8002282:	2101      	movs	r1, #1
 8002284:	009b      	lsls	r3, r3, #2
 8002286:	54c1      	strb	r1, [r0, r3]
  pdev->id = id;
 8002288:	7002      	strb	r2, [r0, #0]
  /* Initialize low level driver */
  USBD_LL_Init(pdev);
 800228a:	f000 fd41 	bl	8002d10 <USBD_LL_Init>

  return USBD_OK;
 800228e:	2300      	movs	r3, #0
}
 8002290:	0018      	movs	r0, r3
 8002292:	bd10      	pop	{r4, pc}

08002294 <USBD_RegisterClass>:
  else
  {
#if (USBD_DEBUG_LEVEL > 1U)
    USBD_ErrLog("Invalid Class handle");
#endif
    status = USBD_FAIL;
 8002294:	2302      	movs	r3, #2
  if (pclass != NULL)
 8002296:	2900      	cmp	r1, #0
 8002298:	d003      	beq.n	80022a2 <USBD_RegisterClass+0xe>
    pdev->pClass = pclass;
 800229a:	23ad      	movs	r3, #173	; 0xad
 800229c:	009b      	lsls	r3, r3, #2
 800229e:	50c1      	str	r1, [r0, r3]
    status = USBD_OK;
 80022a0:	2300      	movs	r3, #0
  }

  return status;
}
 80022a2:	0018      	movs	r0, r3
 80022a4:	4770      	bx	lr

080022a6 <USBD_Start>:
  *         Start the USB Device Core.
  * @param  pdev: Device Handle
  * @retval USBD Status
  */
USBD_StatusTypeDef  USBD_Start(USBD_HandleTypeDef *pdev)
{
 80022a6:	b510      	push	{r4, lr}
  /* Start the low level driver  */
  USBD_LL_Start(pdev);
 80022a8:	f000 fd72 	bl	8002d90 <USBD_LL_Start>

  return USBD_OK;
}
 80022ac:	2000      	movs	r0, #0
 80022ae:	bd10      	pop	{r4, pc}

080022b0 <USBD_SetClassConfig>:

USBD_StatusTypeDef USBD_SetClassConfig(USBD_HandleTypeDef  *pdev, uint8_t cfgidx)
{
  USBD_StatusTypeDef ret = USBD_FAIL;

  if (pdev->pClass != NULL)
 80022b0:	23ad      	movs	r3, #173	; 0xad
 80022b2:	009b      	lsls	r3, r3, #2
 80022b4:	58c3      	ldr	r3, [r0, r3]
{
 80022b6:	b510      	push	{r4, lr}
  if (pdev->pClass != NULL)
 80022b8:	2b00      	cmp	r3, #0
 80022ba:	d101      	bne.n	80022c0 <USBD_SetClassConfig+0x10>
  USBD_StatusTypeDef ret = USBD_FAIL;
 80022bc:	2002      	movs	r0, #2
      ret = USBD_OK;
    }
  }

  return ret;
}
 80022be:	bd10      	pop	{r4, pc}
    if (pdev->pClass->Init(pdev, cfgidx) == 0U)
 80022c0:	681b      	ldr	r3, [r3, #0]
 80022c2:	4798      	blx	r3
 80022c4:	2800      	cmp	r0, #0
 80022c6:	d0fa      	beq.n	80022be <USBD_SetClassConfig+0xe>
 80022c8:	e7f8      	b.n	80022bc <USBD_SetClassConfig+0xc>

080022ca <USBD_ClrClassConfig>:
* @retval status: USBD_StatusTypeDef
*/
USBD_StatusTypeDef USBD_ClrClassConfig(USBD_HandleTypeDef  *pdev, uint8_t cfgidx)
{
  /* Clear configuration  and De-initialize the Class process*/
  pdev->pClass->DeInit(pdev, cfgidx);
 80022ca:	23ad      	movs	r3, #173	; 0xad
{
 80022cc:	b510      	push	{r4, lr}
  pdev->pClass->DeInit(pdev, cfgidx);
 80022ce:	009b      	lsls	r3, r3, #2
 80022d0:	58c3      	ldr	r3, [r0, r3]
 80022d2:	685b      	ldr	r3, [r3, #4]
 80022d4:	4798      	blx	r3

  return USBD_OK;
}
 80022d6:	2000      	movs	r0, #0
 80022d8:	bd10      	pop	{r4, pc}
	...

080022dc <USBD_LL_SetupStage>:
* @param  pdev: device instance
* @retval status
*/
USBD_StatusTypeDef USBD_LL_SetupStage(USBD_HandleTypeDef *pdev, uint8_t *psetup)
{
  USBD_ParseSetupRequest(&pdev->request, psetup);
 80022dc:	23aa      	movs	r3, #170	; 0xaa
 80022de:	009b      	lsls	r3, r3, #2
{
 80022e0:	b570      	push	{r4, r5, r6, lr}
  USBD_ParseSetupRequest(&pdev->request, psetup);
 80022e2:	18c5      	adds	r5, r0, r3
{
 80022e4:	0004      	movs	r4, r0
  USBD_ParseSetupRequest(&pdev->request, psetup);
 80022e6:	0028      	movs	r0, r5
 80022e8:	f000 fb1b 	bl	8002922 <USBD_ParseSetupRequest>

  pdev->ep0_state = USBD_EP0_SETUP;
 80022ec:	23a5      	movs	r3, #165	; 0xa5
 80022ee:	2201      	movs	r2, #1
 80022f0:	009b      	lsls	r3, r3, #2
 80022f2:	50e2      	str	r2, [r4, r3]

  pdev->ep0_data_len = pdev->request.wLength;
 80022f4:	4b11      	ldr	r3, [pc, #68]	; (800233c <USBD_LL_SetupStage+0x60>)
 80022f6:	5ae2      	ldrh	r2, [r4, r3]
 80022f8:	3b16      	subs	r3, #22
 80022fa:	50e2      	str	r2, [r4, r3]

  switch (pdev->request.bmRequest & 0x1FU)
 80022fc:	3310      	adds	r3, #16
 80022fe:	5ce1      	ldrb	r1, [r4, r3]
 8002300:	231f      	movs	r3, #31
 8002302:	400b      	ands	r3, r1
 8002304:	2b01      	cmp	r3, #1
 8002306:	d00f      	beq.n	8002328 <USBD_LL_SetupStage+0x4c>
 8002308:	2b00      	cmp	r3, #0
 800230a:	d007      	beq.n	800231c <USBD_LL_SetupStage+0x40>
 800230c:	2b02      	cmp	r3, #2
 800230e:	d010      	beq.n	8002332 <USBD_LL_SetupStage+0x56>
    case USB_REQ_RECIPIENT_ENDPOINT:
      USBD_StdEPReq(pdev, &pdev->request);
      break;

    default:
      USBD_LL_StallEP(pdev, (pdev->request.bmRequest & 0x80U));
 8002310:	237f      	movs	r3, #127	; 0x7f
 8002312:	0020      	movs	r0, r4
 8002314:	4399      	bics	r1, r3
 8002316:	f000 fd6d 	bl	8002df4 <USBD_LL_StallEP>
      break;
 800231a:	e003      	b.n	8002324 <USBD_LL_SetupStage+0x48>
      USBD_StdDevReq(pdev, &pdev->request);
 800231c:	0029      	movs	r1, r5
 800231e:	0020      	movs	r0, r4
 8002320:	f000 f914 	bl	800254c <USBD_StdDevReq>
  }

  return USBD_OK;
}
 8002324:	2000      	movs	r0, #0
 8002326:	bd70      	pop	{r4, r5, r6, pc}
      USBD_StdItfReq(pdev, &pdev->request);
 8002328:	0029      	movs	r1, r5
 800232a:	0020      	movs	r0, r4
 800232c:	f000 fa3c 	bl	80027a8 <USBD_StdItfReq>
      break;
 8002330:	e7f8      	b.n	8002324 <USBD_LL_SetupStage+0x48>
      USBD_StdEPReq(pdev, &pdev->request);
 8002332:	0029      	movs	r1, r5
 8002334:	0020      	movs	r0, r4
 8002336:	f000 fa61 	bl	80027fc <USBD_StdEPReq>
      break;
 800233a:	e7f3      	b.n	8002324 <USBD_LL_SetupStage+0x48>
 800233c:	000002ae 	.word	0x000002ae

08002340 <USBD_LL_DataOutStage>:
* @param  epnum: endpoint index
* @retval status
*/
USBD_StatusTypeDef USBD_LL_DataOutStage(USBD_HandleTypeDef *pdev,
                                        uint8_t epnum, uint8_t *pdata)
{
 8002340:	b570      	push	{r4, r5, r6, lr}
 8002342:	0004      	movs	r4, r0
 8002344:	0015      	movs	r5, r2
  USBD_EndpointTypeDef *pep;

  if (epnum == 0U)
 8002346:	2900      	cmp	r1, #0
 8002348:	d130      	bne.n	80023ac <USBD_LL_DataOutStage+0x6c>
  {
    pep = &pdev->ep_out[0];

    if (pdev->ep0_state == USBD_EP0_DATA_OUT)
 800234a:	23a5      	movs	r3, #165	; 0xa5
 800234c:	009b      	lsls	r3, r3, #2
 800234e:	58c2      	ldr	r2, [r0, r3]
 8002350:	2a03      	cmp	r2, #3
 8002352:	d123      	bne.n	800239c <USBD_LL_DataOutStage+0x5c>
    {
      if (pep->rem_length > pep->maxpacket)
 8002354:	0002      	movs	r2, r0
 8002356:	3255      	adds	r2, #85	; 0x55
 8002358:	32ff      	adds	r2, #255	; 0xff
 800235a:	68d3      	ldr	r3, [r2, #12]
 800235c:	6910      	ldr	r0, [r2, #16]
 800235e:	4283      	cmp	r3, r0
 8002360:	d90b      	bls.n	800237a <USBD_LL_DataOutStage+0x3a>
      {
        pep->rem_length -= pep->maxpacket;
 8002362:	1a1b      	subs	r3, r3, r0
 8002364:	60d3      	str	r3, [r2, #12]

        USBD_CtlContinueRx(pdev, pdata,
 8002366:	b282      	uxth	r2, r0
 8002368:	4298      	cmp	r0, r3
 800236a:	d900      	bls.n	800236e <USBD_LL_DataOutStage+0x2e>
 800236c:	b29a      	uxth	r2, r3
 800236e:	0029      	movs	r1, r5
 8002370:	0020      	movs	r0, r4
 8002372:	f000 fb37 	bl	80029e4 <USBD_CtlContinueRx>
  {
    /* should never be in this condition */
    return USBD_FAIL;
  }

  return USBD_OK;
 8002376:	2500      	movs	r5, #0
    pdev->pClass->DataOut(pdev, epnum);
 8002378:	e016      	b.n	80023a8 <USBD_LL_DataOutStage+0x68>
        if ((pdev->pClass->EP0_RxReady != NULL) &&
 800237a:	23ad      	movs	r3, #173	; 0xad
 800237c:	009b      	lsls	r3, r3, #2
 800237e:	58e3      	ldr	r3, [r4, r3]
 8002380:	691b      	ldr	r3, [r3, #16]
 8002382:	2b00      	cmp	r3, #0
 8002384:	d006      	beq.n	8002394 <USBD_LL_DataOutStage+0x54>
            (pdev->dev_state == USBD_STATE_CONFIGURED))
 8002386:	22a7      	movs	r2, #167	; 0xa7
 8002388:	0092      	lsls	r2, r2, #2
        if ((pdev->pClass->EP0_RxReady != NULL) &&
 800238a:	5ca2      	ldrb	r2, [r4, r2]
 800238c:	2a03      	cmp	r2, #3
 800238e:	d101      	bne.n	8002394 <USBD_LL_DataOutStage+0x54>
          pdev->pClass->EP0_RxReady(pdev);
 8002390:	0020      	movs	r0, r4
 8002392:	4798      	blx	r3
        USBD_CtlSendStatus(pdev);
 8002394:	0020      	movs	r0, r4
 8002396:	f000 fb2d 	bl	80029f4 <USBD_CtlSendStatus>
 800239a:	e7ec      	b.n	8002376 <USBD_LL_DataOutStage+0x36>
  return USBD_OK;
 800239c:	000d      	movs	r5, r1
      if (pdev->ep0_state == USBD_EP0_STATUS_OUT)
 800239e:	2a05      	cmp	r2, #5
 80023a0:	d102      	bne.n	80023a8 <USBD_LL_DataOutStage+0x68>
        pdev->ep0_state = USBD_EP0_IDLE;
 80023a2:	50e1      	str	r1, [r4, r3]
        USBD_LL_StallEP(pdev, 0U);
 80023a4:	f000 fd26 	bl	8002df4 <USBD_LL_StallEP>
}
 80023a8:	0028      	movs	r0, r5
 80023aa:	bd70      	pop	{r4, r5, r6, pc}
  else if ((pdev->pClass->DataOut != NULL) &&
 80023ac:	23ad      	movs	r3, #173	; 0xad
 80023ae:	009b      	lsls	r3, r3, #2
 80023b0:	58c3      	ldr	r3, [r0, r3]
    return USBD_FAIL;
 80023b2:	2502      	movs	r5, #2
  else if ((pdev->pClass->DataOut != NULL) &&
 80023b4:	699b      	ldr	r3, [r3, #24]
 80023b6:	2b00      	cmp	r3, #0
 80023b8:	d0f6      	beq.n	80023a8 <USBD_LL_DataOutStage+0x68>
           (pdev->dev_state == USBD_STATE_CONFIGURED))
 80023ba:	22a7      	movs	r2, #167	; 0xa7
 80023bc:	0092      	lsls	r2, r2, #2
  else if ((pdev->pClass->DataOut != NULL) &&
 80023be:	5c82      	ldrb	r2, [r0, r2]
 80023c0:	2a03      	cmp	r2, #3
 80023c2:	d1f1      	bne.n	80023a8 <USBD_LL_DataOutStage+0x68>
    pdev->pClass->DataOut(pdev, epnum);
 80023c4:	4798      	blx	r3
 80023c6:	e7d6      	b.n	8002376 <USBD_LL_DataOutStage+0x36>

080023c8 <USBD_LL_DataInStage>:
* @param  epnum: endpoint index
* @retval status
*/
USBD_StatusTypeDef USBD_LL_DataInStage(USBD_HandleTypeDef *pdev,
                                       uint8_t epnum, uint8_t *pdata)
{
 80023c8:	b5f8      	push	{r3, r4, r5, r6, r7, lr}
 80023ca:	000d      	movs	r5, r1
 80023cc:	0004      	movs	r4, r0
 80023ce:	0011      	movs	r1, r2
  USBD_EndpointTypeDef *pep;

  if (epnum == 0U)
 80023d0:	2d00      	cmp	r5, #0
 80023d2:	d14b      	bne.n	800246c <USBD_LL_DataInStage+0xa4>
  {
    pep = &pdev->ep_in[0];

    if (pdev->ep0_state == USBD_EP0_DATA_IN)
 80023d4:	23a5      	movs	r3, #165	; 0xa5
 80023d6:	009b      	lsls	r3, r3, #2
 80023d8:	58c3      	ldr	r3, [r0, r3]
 80023da:	2b02      	cmp	r3, #2
 80023dc:	d13f      	bne.n	800245e <USBD_LL_DataInStage+0x96>
    {
      if (pep->rem_length > pep->maxpacket)
 80023de:	6a02      	ldr	r2, [r0, #32]
 80023e0:	6a46      	ldr	r6, [r0, #36]	; 0x24
 80023e2:	42b2      	cmp	r2, r6
 80023e4:	d912      	bls.n	800240c <USBD_LL_DataInStage+0x44>
      {
        pep->rem_length -= pep->maxpacket;
 80023e6:	1b92      	subs	r2, r2, r6
 80023e8:	6202      	str	r2, [r0, #32]

        USBD_CtlContinueSendData(pdev, pdata, (uint16_t)pep->rem_length);
 80023ea:	b292      	uxth	r2, r2
 80023ec:	f000 fae2 	bl	80029b4 <USBD_CtlContinueSendData>
        {
          USBD_CtlContinueSendData(pdev, NULL, 0U);
          pdev->ep0_data_len = 0U;

          /* Prepare endpoint for premature end of transfer */
          USBD_LL_PrepareReceive(pdev, 0U, NULL, 0U);
 80023f0:	002b      	movs	r3, r5
 80023f2:	002a      	movs	r2, r5
 80023f4:	0029      	movs	r1, r5
 80023f6:	0020      	movs	r0, r4
 80023f8:	f000 fd4e 	bl	8002e98 <USBD_LL_PrepareReceive>
      {
        USBD_LL_StallEP(pdev, 0x80U);
      }
    }

    if (pdev->dev_test_mode == 1U)
 80023fc:	23a8      	movs	r3, #168	; 0xa8
 80023fe:	009b      	lsls	r3, r3, #2
 8002400:	5ce2      	ldrb	r2, [r4, r3]
 8002402:	2000      	movs	r0, #0
 8002404:	2a01      	cmp	r2, #1
 8002406:	d100      	bne.n	800240a <USBD_LL_DataInStage+0x42>
    {
      USBD_RunTestMode(pdev);
      pdev->dev_test_mode = 0U;
 8002408:	54e0      	strb	r0, [r4, r3]
    /* should never be in this condition */
    return USBD_FAIL;
  }

  return USBD_OK;
}
 800240a:	bdf8      	pop	{r3, r4, r5, r6, r7, pc}
        if ((pep->total_length % pep->maxpacket == 0U) &&
 800240c:	69c7      	ldr	r7, [r0, #28]
 800240e:	0031      	movs	r1, r6
 8002410:	0038      	movs	r0, r7
 8002412:	f7fd ff13 	bl	800023c <__aeabi_uidivmod>
 8002416:	1e0d      	subs	r5, r1, #0
 8002418:	d10c      	bne.n	8002434 <USBD_LL_DataInStage+0x6c>
 800241a:	42be      	cmp	r6, r7
 800241c:	d80a      	bhi.n	8002434 <USBD_LL_DataInStage+0x6c>
            (pep->total_length < pdev->ep0_data_len))
 800241e:	26a6      	movs	r6, #166	; 0xa6
 8002420:	00b6      	lsls	r6, r6, #2
            (pep->total_length >= pep->maxpacket) &&
 8002422:	59a3      	ldr	r3, [r4, r6]
 8002424:	429f      	cmp	r7, r3
 8002426:	d205      	bcs.n	8002434 <USBD_LL_DataInStage+0x6c>
          USBD_CtlContinueSendData(pdev, NULL, 0U);
 8002428:	000a      	movs	r2, r1
 800242a:	0020      	movs	r0, r4
 800242c:	f000 fac2 	bl	80029b4 <USBD_CtlContinueSendData>
          pdev->ep0_data_len = 0U;
 8002430:	51a5      	str	r5, [r4, r6]
 8002432:	e7dd      	b.n	80023f0 <USBD_LL_DataInStage+0x28>
          if ((pdev->pClass->EP0_TxSent != NULL) &&
 8002434:	23ad      	movs	r3, #173	; 0xad
 8002436:	009b      	lsls	r3, r3, #2
 8002438:	58e3      	ldr	r3, [r4, r3]
 800243a:	68db      	ldr	r3, [r3, #12]
 800243c:	2b00      	cmp	r3, #0
 800243e:	d006      	beq.n	800244e <USBD_LL_DataInStage+0x86>
              (pdev->dev_state == USBD_STATE_CONFIGURED))
 8002440:	22a7      	movs	r2, #167	; 0xa7
 8002442:	0092      	lsls	r2, r2, #2
          if ((pdev->pClass->EP0_TxSent != NULL) &&
 8002444:	5ca2      	ldrb	r2, [r4, r2]
 8002446:	2a03      	cmp	r2, #3
 8002448:	d101      	bne.n	800244e <USBD_LL_DataInStage+0x86>
            pdev->pClass->EP0_TxSent(pdev);
 800244a:	0020      	movs	r0, r4
 800244c:	4798      	blx	r3
          USBD_LL_StallEP(pdev, 0x80U);
 800244e:	2180      	movs	r1, #128	; 0x80
 8002450:	0020      	movs	r0, r4
 8002452:	f000 fccf 	bl	8002df4 <USBD_LL_StallEP>
          USBD_CtlReceiveStatus(pdev);
 8002456:	0020      	movs	r0, r4
 8002458:	f000 fad8 	bl	8002a0c <USBD_CtlReceiveStatus>
 800245c:	e7ce      	b.n	80023fc <USBD_LL_DataInStage+0x34>
      if ((pdev->ep0_state == USBD_EP0_STATUS_IN) ||
 800245e:	2204      	movs	r2, #4
 8002460:	4393      	bics	r3, r2
 8002462:	d1cb      	bne.n	80023fc <USBD_LL_DataInStage+0x34>
        USBD_LL_StallEP(pdev, 0x80U);
 8002464:	2180      	movs	r1, #128	; 0x80
 8002466:	f000 fcc5 	bl	8002df4 <USBD_LL_StallEP>
 800246a:	e7c7      	b.n	80023fc <USBD_LL_DataInStage+0x34>
  else if ((pdev->pClass->DataIn != NULL) &&
 800246c:	23ad      	movs	r3, #173	; 0xad
 800246e:	009b      	lsls	r3, r3, #2
 8002470:	58c3      	ldr	r3, [r0, r3]
    return USBD_FAIL;
 8002472:	2002      	movs	r0, #2
  else if ((pdev->pClass->DataIn != NULL) &&
 8002474:	695b      	ldr	r3, [r3, #20]
 8002476:	2b00      	cmp	r3, #0
 8002478:	d0c7      	beq.n	800240a <USBD_LL_DataInStage+0x42>
           (pdev->dev_state == USBD_STATE_CONFIGURED))
 800247a:	22a7      	movs	r2, #167	; 0xa7
 800247c:	0092      	lsls	r2, r2, #2
  else if ((pdev->pClass->DataIn != NULL) &&
 800247e:	5ca2      	ldrb	r2, [r4, r2]
 8002480:	2a03      	cmp	r2, #3
 8002482:	d1c2      	bne.n	800240a <USBD_LL_DataInStage+0x42>
    pdev->pClass->DataIn(pdev, epnum);
 8002484:	0029      	movs	r1, r5
 8002486:	0020      	movs	r0, r4
 8002488:	4798      	blx	r3
  return USBD_OK;
 800248a:	2000      	movs	r0, #0
    pdev->pClass->DataIn(pdev, epnum);
 800248c:	e7bd      	b.n	800240a <USBD_LL_DataInStage+0x42>

0800248e <USBD_LL_Reset>:
*/

USBD_StatusTypeDef USBD_LL_Reset(USBD_HandleTypeDef *pdev)
{
  /* Open EP0 OUT */
  USBD_LL_OpenEP(pdev, 0x00U, USBD_EP_TYPE_CTRL, USB_MAX_EP0_SIZE);
 800248e:	2200      	movs	r2, #0
{
 8002490:	b570      	push	{r4, r5, r6, lr}
 8002492:	0004      	movs	r4, r0
  USBD_LL_OpenEP(pdev, 0x00U, USBD_EP_TYPE_CTRL, USB_MAX_EP0_SIZE);
 8002494:	0011      	movs	r1, r2
 8002496:	2340      	movs	r3, #64	; 0x40
 8002498:	f000 fc8a 	bl	8002db0 <USBD_LL_OpenEP>
  pdev->ep_out[0x00U & 0xFU].is_used = 1U;
 800249c:	0023      	movs	r3, r4
 800249e:	2501      	movs	r5, #1

  pdev->ep_out[0].maxpacket = USB_MAX_EP0_SIZE;
 80024a0:	2640      	movs	r6, #64	; 0x40
  pdev->ep_out[0x00U & 0xFU].is_used = 1U;
 80024a2:	33fc      	adds	r3, #252	; 0xfc
 80024a4:	65dd      	str	r5, [r3, #92]	; 0x5c
  pdev->ep_out[0].maxpacket = USB_MAX_EP0_SIZE;
 80024a6:	669e      	str	r6, [r3, #104]	; 0x68

  /* Open EP0 IN */
  USBD_LL_OpenEP(pdev, 0x80U, USBD_EP_TYPE_CTRL, USB_MAX_EP0_SIZE);
 80024a8:	2180      	movs	r1, #128	; 0x80
 80024aa:	0033      	movs	r3, r6
 80024ac:	2200      	movs	r2, #0
 80024ae:	0020      	movs	r0, r4
 80024b0:	f000 fc7e 	bl	8002db0 <USBD_LL_OpenEP>
  pdev->ep_in[0x80U & 0xFU].is_used = 1U;

  pdev->ep_in[0].maxpacket = USB_MAX_EP0_SIZE;

  /* Upon Reset call user call back */
  pdev->dev_state = USBD_STATE_DEFAULT;
 80024b4:	23a7      	movs	r3, #167	; 0xa7
  pdev->ep0_state = USBD_EP0_IDLE;
 80024b6:	2100      	movs	r1, #0
  pdev->dev_state = USBD_STATE_DEFAULT;
 80024b8:	009b      	lsls	r3, r3, #2
  pdev->ep_in[0x80U & 0xFU].is_used = 1U;
 80024ba:	61a5      	str	r5, [r4, #24]
  pdev->ep_in[0].maxpacket = USB_MAX_EP0_SIZE;
 80024bc:	6266      	str	r6, [r4, #36]	; 0x24
  pdev->dev_state = USBD_STATE_DEFAULT;
 80024be:	54e5      	strb	r5, [r4, r3]
  pdev->ep0_state = USBD_EP0_IDLE;
 80024c0:	3b08      	subs	r3, #8
 80024c2:	50e1      	str	r1, [r4, r3]
  pdev->dev_config = 0U;
  pdev->dev_remote_wakeup = 0U;
 80024c4:	3310      	adds	r3, #16
  pdev->dev_config = 0U;
 80024c6:	6061      	str	r1, [r4, #4]
  pdev->dev_remote_wakeup = 0U;
 80024c8:	50e1      	str	r1, [r4, r3]

  if (pdev->pClassData)
 80024ca:	3314      	adds	r3, #20
 80024cc:	58e3      	ldr	r3, [r4, r3]
 80024ce:	428b      	cmp	r3, r1
 80024d0:	d005      	beq.n	80024de <USBD_LL_Reset+0x50>
  {
    pdev->pClass->DeInit(pdev, (uint8_t)pdev->dev_config);
 80024d2:	23ad      	movs	r3, #173	; 0xad
 80024d4:	009b      	lsls	r3, r3, #2
 80024d6:	58e3      	ldr	r3, [r4, r3]
 80024d8:	0020      	movs	r0, r4
 80024da:	685b      	ldr	r3, [r3, #4]
 80024dc:	4798      	blx	r3
  }

  return USBD_OK;
}
 80024de:	2000      	movs	r0, #0
 80024e0:	bd70      	pop	{r4, r5, r6, pc}

080024e2 <USBD_LL_SetSpeed>:
* @retval status
*/
USBD_StatusTypeDef USBD_LL_SetSpeed(USBD_HandleTypeDef *pdev,
                                    USBD_SpeedTypeDef speed)
{
  pdev->dev_speed = speed;
 80024e2:	7401      	strb	r1, [r0, #16]

  return USBD_OK;
}
 80024e4:	2000      	movs	r0, #0
 80024e6:	4770      	bx	lr

080024e8 <USBD_LL_Suspend>:
* @retval status
*/

USBD_StatusTypeDef USBD_LL_Suspend(USBD_HandleTypeDef *pdev)
{
  pdev->dev_old_state =  pdev->dev_state;
 80024e8:	23a7      	movs	r3, #167	; 0xa7
 80024ea:	009b      	lsls	r3, r3, #2
 80024ec:	5cc1      	ldrb	r1, [r0, r3]
 80024ee:	4a03      	ldr	r2, [pc, #12]	; (80024fc <USBD_LL_Suspend+0x14>)
 80024f0:	5481      	strb	r1, [r0, r2]
  pdev->dev_state  = USBD_STATE_SUSPENDED;
 80024f2:	2204      	movs	r2, #4
 80024f4:	54c2      	strb	r2, [r0, r3]

  return USBD_OK;
}
 80024f6:	2000      	movs	r0, #0
 80024f8:	4770      	bx	lr
 80024fa:	46c0      	nop			; (mov r8, r8)
 80024fc:	0000029d 	.word	0x0000029d

08002500 <USBD_LL_Resume>:
* @retval status
*/

USBD_StatusTypeDef USBD_LL_Resume(USBD_HandleTypeDef *pdev)
{
  if (pdev->dev_state == USBD_STATE_SUSPENDED)
 8002500:	23a7      	movs	r3, #167	; 0xa7
 8002502:	009b      	lsls	r3, r3, #2
 8002504:	5cc2      	ldrb	r2, [r0, r3]
 8002506:	2a04      	cmp	r2, #4
 8002508:	d102      	bne.n	8002510 <USBD_LL_Resume+0x10>
  {
    pdev->dev_state = pdev->dev_old_state;
 800250a:	4a02      	ldr	r2, [pc, #8]	; (8002514 <USBD_LL_Resume+0x14>)
 800250c:	5c82      	ldrb	r2, [r0, r2]
 800250e:	54c2      	strb	r2, [r0, r3]
  }

  return USBD_OK;
}
 8002510:	2000      	movs	r0, #0
 8002512:	4770      	bx	lr
 8002514:	0000029d 	.word	0x0000029d

08002518 <USBD_LL_SOF>:
* @retval status
*/

USBD_StatusTypeDef USBD_LL_SOF(USBD_HandleTypeDef *pdev)
{
  if (pdev->dev_state == USBD_STATE_CONFIGURED)
 8002518:	23a7      	movs	r3, #167	; 0xa7
{
 800251a:	b510      	push	{r4, lr}
  if (pdev->dev_state == USBD_STATE_CONFIGURED)
 800251c:	009b      	lsls	r3, r3, #2
 800251e:	5cc3      	ldrb	r3, [r0, r3]
 8002520:	2b03      	cmp	r3, #3
 8002522:	d106      	bne.n	8002532 <USBD_LL_SOF+0x1a>
  {
    if (pdev->pClass->SOF != NULL)
 8002524:	23ad      	movs	r3, #173	; 0xad
 8002526:	009b      	lsls	r3, r3, #2
 8002528:	58c3      	ldr	r3, [r0, r3]
 800252a:	69db      	ldr	r3, [r3, #28]
 800252c:	2b00      	cmp	r3, #0
 800252e:	d000      	beq.n	8002532 <USBD_LL_SOF+0x1a>
    {
      pdev->pClass->SOF(pdev);
 8002530:	4798      	blx	r3
    }
  }

  return USBD_OK;
}
 8002532:	2000      	movs	r0, #0
 8002534:	bd10      	pop	{r4, pc}

08002536 <USBD_CtlError.constprop.1>:
* @param  pdev: device instance
* @param  req: usb request
* @retval None
*/

void USBD_CtlError(USBD_HandleTypeDef *pdev,
 8002536:	b510      	push	{r4, lr}
 8002538:	0004      	movs	r4, r0
                   USBD_SetupReqTypedef *req)
{
  USBD_LL_StallEP(pdev, 0x80U);
 800253a:	2180      	movs	r1, #128	; 0x80
 800253c:	f000 fc5a 	bl	8002df4 <USBD_LL_StallEP>
  USBD_LL_StallEP(pdev, 0U);
 8002540:	2100      	movs	r1, #0
 8002542:	0020      	movs	r0, r4
 8002544:	f000 fc56 	bl	8002df4 <USBD_LL_StallEP>
}
 8002548:	bd10      	pop	{r4, pc}
	...

0800254c <USBD_StdDevReq>:
  switch (req->bmRequest & USB_REQ_TYPE_MASK)
 800254c:	2260      	movs	r2, #96	; 0x60
 800254e:	780b      	ldrb	r3, [r1, #0]
{
 8002550:	b573      	push	{r0, r1, r4, r5, r6, lr}
  switch (req->bmRequest & USB_REQ_TYPE_MASK)
 8002552:	4013      	ands	r3, r2
{
 8002554:	0004      	movs	r4, r0
 8002556:	000d      	movs	r5, r1
  switch (req->bmRequest & USB_REQ_TYPE_MASK)
 8002558:	2b20      	cmp	r3, #32
 800255a:	d014      	beq.n	8002586 <USBD_StdDevReq+0x3a>
 800255c:	2b40      	cmp	r3, #64	; 0x40
 800255e:	d012      	beq.n	8002586 <USBD_StdDevReq+0x3a>
 8002560:	2b00      	cmp	r3, #0
 8002562:	d000      	beq.n	8002566 <USBD_StdDevReq+0x1a>
 8002564:	e090      	b.n	8002688 <USBD_StdDevReq+0x13c>
      switch (req->bRequest)
 8002566:	7848      	ldrb	r0, [r1, #1]
 8002568:	2809      	cmp	r0, #9
 800256a:	d900      	bls.n	800256e <USBD_StdDevReq+0x22>
 800256c:	e08c      	b.n	8002688 <USBD_StdDevReq+0x13c>
 800256e:	f7fd fdd5 	bl	800011c <__gnu_thumb1_case_uhi>
 8002572:	00e9      	.short	0x00e9
 8002574:	008b0106 	.word	0x008b0106
 8002578:	008b00fe 	.word	0x008b00fe
 800257c:	0013007d 	.word	0x0013007d
 8002580:	00d3008b 	.word	0x00d3008b
 8002584:	009e      	.short	0x009e
      pdev->pClass->Setup(pdev, req);
 8002586:	23ad      	movs	r3, #173	; 0xad
 8002588:	009b      	lsls	r3, r3, #2
 800258a:	58e3      	ldr	r3, [r4, r3]
 800258c:	0029      	movs	r1, r5
 800258e:	689b      	ldr	r3, [r3, #8]
 8002590:	0020      	movs	r0, r4
 8002592:	4798      	blx	r3
}
 8002594:	2000      	movs	r0, #0
 8002596:	bd76      	pop	{r1, r2, r4, r5, r6, pc}
  uint16_t len = 0U;
 8002598:	466b      	mov	r3, sp
 800259a:	1d9e      	adds	r6, r3, #6
 800259c:	2300      	movs	r3, #0
 800259e:	8033      	strh	r3, [r6, #0]
  switch (req->wValue >> 8)
 80025a0:	884b      	ldrh	r3, [r1, #2]
 80025a2:	0a18      	lsrs	r0, r3, #8
 80025a4:	3801      	subs	r0, #1
 80025a6:	2806      	cmp	r0, #6
 80025a8:	d86e      	bhi.n	8002688 <USBD_StdDevReq+0x13c>
 80025aa:	f7fd fdad 	bl	8000108 <__gnu_thumb1_case_uqi>
 80025ae:	2204      	.short	0x2204
 80025b0:	4a6d6d30 	.word	0x4a6d6d30
 80025b4:	54          	.byte	0x54
 80025b5:	00          	.byte	0x00
      pbuf = pdev->pDesc->GetDeviceDescriptor(pdev->dev_speed, &len);
 80025b6:	23ac      	movs	r3, #172	; 0xac
 80025b8:	009b      	lsls	r3, r3, #2
 80025ba:	58e3      	ldr	r3, [r4, r3]
 80025bc:	7c20      	ldrb	r0, [r4, #16]
 80025be:	681b      	ldr	r3, [r3, #0]
            pbuf = pdev->pDesc->GetLangIDStrDescriptor(pdev->dev_speed, &len);
 80025c0:	0031      	movs	r1, r6
 80025c2:	4798      	blx	r3
    if ((len != 0U) && (req->wLength != 0U))
 80025c4:	8831      	ldrh	r1, [r6, #0]
 80025c6:	2900      	cmp	r1, #0
 80025c8:	d00c      	beq.n	80025e4 <USBD_StdDevReq+0x98>
 80025ca:	88ea      	ldrh	r2, [r5, #6]
 80025cc:	2a00      	cmp	r2, #0
 80025ce:	d009      	beq.n	80025e4 <USBD_StdDevReq+0x98>
      len = MIN(len, req->wLength);
 80025d0:	1c0b      	adds	r3, r1, #0
 80025d2:	4291      	cmp	r1, r2
 80025d4:	d900      	bls.n	80025d8 <USBD_StdDevReq+0x8c>
 80025d6:	1c13      	adds	r3, r2, #0
      (void)USBD_CtlSendData(pdev, pbuf, len);
 80025d8:	0001      	movs	r1, r0
      len = MIN(len, req->wLength);
 80025da:	b29a      	uxth	r2, r3
      (void)USBD_CtlSendData(pdev, pbuf, len);
 80025dc:	0020      	movs	r0, r4
      len = MIN(len, req->wLength);
 80025de:	8033      	strh	r3, [r6, #0]
      (void)USBD_CtlSendData(pdev, pbuf, len);
 80025e0:	f000 f9da 	bl	8002998 <USBD_CtlSendData>
    if (req->wLength == 0U)
 80025e4:	88eb      	ldrh	r3, [r5, #6]
 80025e6:	2b00      	cmp	r3, #0
 80025e8:	d1d4      	bne.n	8002594 <USBD_StdDevReq+0x48>
        USBD_CtlSendStatus(pdev);
 80025ea:	0020      	movs	r0, r4
 80025ec:	f000 fa02 	bl	80029f4 <USBD_CtlSendStatus>
 80025f0:	e7d0      	b.n	8002594 <USBD_StdDevReq+0x48>
 80025f2:	23ad      	movs	r3, #173	; 0xad
      if (pdev->dev_speed == USBD_SPEED_HIGH)
 80025f4:	7c22      	ldrb	r2, [r4, #16]
 80025f6:	009b      	lsls	r3, r3, #2
 80025f8:	58e3      	ldr	r3, [r4, r3]
 80025fa:	2a00      	cmp	r2, #0
 80025fc:	d105      	bne.n	800260a <USBD_StdDevReq+0xbe>
        pbuf = pdev->pClass->GetHSConfigDescriptor(&len);
 80025fe:	6a9b      	ldr	r3, [r3, #40]	; 0x28
        pbuf = pdev->pClass->GetFSConfigDescriptor(&len);
 8002600:	0030      	movs	r0, r6
 8002602:	4798      	blx	r3
        pbuf[1] = USB_DESC_TYPE_CONFIGURATION;
 8002604:	2302      	movs	r3, #2
        pbuf[1] = USB_DESC_TYPE_OTHER_SPEED_CONFIGURATION;
 8002606:	7043      	strb	r3, [r0, #1]
 8002608:	e7dc      	b.n	80025c4 <USBD_StdDevReq+0x78>
        pbuf = pdev->pClass->GetFSConfigDescriptor(&len);
 800260a:	6adb      	ldr	r3, [r3, #44]	; 0x2c
 800260c:	e7f8      	b.n	8002600 <USBD_StdDevReq+0xb4>
      switch ((uint8_t)(req->wValue))
 800260e:	b2d8      	uxtb	r0, r3
 8002610:	2805      	cmp	r0, #5
 8002612:	d839      	bhi.n	8002688 <USBD_StdDevReq+0x13c>
 8002614:	23ac      	movs	r3, #172	; 0xac
 8002616:	009b      	lsls	r3, r3, #2
          if (pdev->pDesc->GetInterfaceStrDescriptor != NULL)
 8002618:	58e3      	ldr	r3, [r4, r3]
      switch ((uint8_t)(req->wValue))
 800261a:	f7fd fd75 	bl	8000108 <__gnu_thumb1_case_uqi>
 800261e:	0803      	.short	0x0803
 8002620:	100e0c0a 	.word	0x100e0c0a
          if (pdev->pDesc->GetLangIDStrDescriptor != NULL)
 8002624:	685b      	ldr	r3, [r3, #4]
 8002626:	2b00      	cmp	r3, #0
 8002628:	d02e      	beq.n	8002688 <USBD_StdDevReq+0x13c>
            pbuf = pdev->pDesc->GetLangIDStrDescriptor(pdev->dev_speed, &len);
 800262a:	7c20      	ldrb	r0, [r4, #16]
 800262c:	e7c8      	b.n	80025c0 <USBD_StdDevReq+0x74>
          if (pdev->pDesc->GetManufacturerStrDescriptor != NULL)
 800262e:	689b      	ldr	r3, [r3, #8]
 8002630:	e7f9      	b.n	8002626 <USBD_StdDevReq+0xda>
          if (pdev->pDesc->GetProductStrDescriptor != NULL)
 8002632:	68db      	ldr	r3, [r3, #12]
 8002634:	e7f7      	b.n	8002626 <USBD_StdDevReq+0xda>
          if (pdev->pDesc->GetSerialStrDescriptor != NULL)
 8002636:	691b      	ldr	r3, [r3, #16]
 8002638:	e7f5      	b.n	8002626 <USBD_StdDevReq+0xda>
          if (pdev->pDesc->GetConfigurationStrDescriptor != NULL)
 800263a:	695b      	ldr	r3, [r3, #20]
 800263c:	e7f3      	b.n	8002626 <USBD_StdDevReq+0xda>
          if (pdev->pDesc->GetInterfaceStrDescriptor != NULL)
 800263e:	699b      	ldr	r3, [r3, #24]
 8002640:	e7f1      	b.n	8002626 <USBD_StdDevReq+0xda>
      if (pdev->dev_speed == USBD_SPEED_HIGH)
 8002642:	7c23      	ldrb	r3, [r4, #16]
 8002644:	2b00      	cmp	r3, #0
 8002646:	d11f      	bne.n	8002688 <USBD_StdDevReq+0x13c>
        pbuf = pdev->pClass->GetDeviceQualifierDescriptor(&len);
 8002648:	23ad      	movs	r3, #173	; 0xad
 800264a:	009b      	lsls	r3, r3, #2
 800264c:	58e3      	ldr	r3, [r4, r3]
 800264e:	0030      	movs	r0, r6
 8002650:	6b5b      	ldr	r3, [r3, #52]	; 0x34
 8002652:	4798      	blx	r3
 8002654:	e7b6      	b.n	80025c4 <USBD_StdDevReq+0x78>
      if (pdev->dev_speed == USBD_SPEED_HIGH)
 8002656:	7c23      	ldrb	r3, [r4, #16]
 8002658:	2b00      	cmp	r3, #0
 800265a:	d115      	bne.n	8002688 <USBD_StdDevReq+0x13c>
        pbuf = pdev->pClass->GetOtherSpeedConfigDescriptor(&len);
 800265c:	23ad      	movs	r3, #173	; 0xad
 800265e:	009b      	lsls	r3, r3, #2
 8002660:	58e3      	ldr	r3, [r4, r3]
 8002662:	0030      	movs	r0, r6
 8002664:	6b1b      	ldr	r3, [r3, #48]	; 0x30
 8002666:	4798      	blx	r3
        pbuf[1] = USB_DESC_TYPE_OTHER_SPEED_CONFIGURATION;
 8002668:	2307      	movs	r3, #7
 800266a:	e7cc      	b.n	8002606 <USBD_StdDevReq+0xba>
  if ((req->wIndex == 0U) && (req->wLength == 0U) && (req->wValue < 128U))
 800266c:	888b      	ldrh	r3, [r1, #4]
 800266e:	2b00      	cmp	r3, #0
 8002670:	d10a      	bne.n	8002688 <USBD_StdDevReq+0x13c>
 8002672:	88cb      	ldrh	r3, [r1, #6]
 8002674:	2b00      	cmp	r3, #0
 8002676:	d107      	bne.n	8002688 <USBD_StdDevReq+0x13c>
 8002678:	884e      	ldrh	r6, [r1, #2]
 800267a:	2e7f      	cmp	r6, #127	; 0x7f
 800267c:	d804      	bhi.n	8002688 <USBD_StdDevReq+0x13c>
    if (pdev->dev_state == USBD_STATE_CONFIGURED)
 800267e:	25a7      	movs	r5, #167	; 0xa7
 8002680:	00ad      	lsls	r5, r5, #2
 8002682:	5d63      	ldrb	r3, [r4, r5]
 8002684:	2b03      	cmp	r3, #3
 8002686:	d103      	bne.n	8002690 <USBD_StdDevReq+0x144>
        USBD_CtlError(pdev, req);
 8002688:	0020      	movs	r0, r4
 800268a:	f7ff ff54 	bl	8002536 <USBD_CtlError.constprop.1>
 800268e:	e781      	b.n	8002594 <USBD_StdDevReq+0x48>
      pdev->dev_address = dev_addr;
 8002690:	4b43      	ldr	r3, [pc, #268]	; (80027a0 <USBD_StdDevReq+0x254>)
    dev_addr = (uint8_t)(req->wValue) & 0x7FU;
 8002692:	b2f1      	uxtb	r1, r6
      pdev->dev_address = dev_addr;
 8002694:	54e1      	strb	r1, [r4, r3]
      USBD_LL_SetUSBAddress(pdev, dev_addr);
 8002696:	0020      	movs	r0, r4
 8002698:	f000 fbde 	bl	8002e58 <USBD_LL_SetUSBAddress>
      USBD_CtlSendStatus(pdev);
 800269c:	0020      	movs	r0, r4
 800269e:	f000 f9a9 	bl	80029f4 <USBD_CtlSendStatus>
        pdev->dev_state = USBD_STATE_ADDRESSED;
 80026a2:	2302      	movs	r3, #2
      if (dev_addr != 0U)
 80026a4:	2e00      	cmp	r6, #0
 80026a6:	d100      	bne.n	80026aa <USBD_StdDevReq+0x15e>
        pdev->dev_state = USBD_STATE_DEFAULT;
 80026a8:	2301      	movs	r3, #1
 80026aa:	5563      	strb	r3, [r4, r5]
 80026ac:	e772      	b.n	8002594 <USBD_StdDevReq+0x48>
  cfgidx = (uint8_t)(req->wValue);
 80026ae:	7889      	ldrb	r1, [r1, #2]
 80026b0:	4d3c      	ldr	r5, [pc, #240]	; (80027a4 <USBD_StdDevReq+0x258>)
 80026b2:	7029      	strb	r1, [r5, #0]
  if (cfgidx > USBD_MAX_NUM_CONFIGURATION)
 80026b4:	2901      	cmp	r1, #1
 80026b6:	d8e7      	bhi.n	8002688 <USBD_StdDevReq+0x13c>
    switch (pdev->dev_state)
 80026b8:	23a7      	movs	r3, #167	; 0xa7
 80026ba:	009b      	lsls	r3, r3, #2
 80026bc:	5ce2      	ldrb	r2, [r4, r3]
 80026be:	2a02      	cmp	r2, #2
 80026c0:	d009      	beq.n	80026d6 <USBD_StdDevReq+0x18a>
 80026c2:	2a03      	cmp	r2, #3
 80026c4:	d014      	beq.n	80026f0 <USBD_StdDevReq+0x1a4>
        USBD_CtlError(pdev, req);
 80026c6:	0020      	movs	r0, r4
 80026c8:	f7ff ff35 	bl	8002536 <USBD_CtlError.constprop.1>
        USBD_ClrClassConfig(pdev, cfgidx);
 80026cc:	7829      	ldrb	r1, [r5, #0]
 80026ce:	0020      	movs	r0, r4
 80026d0:	f7ff fdfb 	bl	80022ca <USBD_ClrClassConfig>
 80026d4:	e75e      	b.n	8002594 <USBD_StdDevReq+0x48>
        if (cfgidx)
 80026d6:	2900      	cmp	r1, #0
 80026d8:	d087      	beq.n	80025ea <USBD_StdDevReq+0x9e>
          pdev->dev_config = cfgidx;
 80026da:	2101      	movs	r1, #1
          pdev->dev_state = USBD_STATE_CONFIGURED;
 80026dc:	2203      	movs	r2, #3
          pdev->dev_config = cfgidx;
 80026de:	6061      	str	r1, [r4, #4]
          pdev->dev_state = USBD_STATE_CONFIGURED;
 80026e0:	54e2      	strb	r2, [r4, r3]
          if (USBD_SetClassConfig(pdev, cfgidx) == USBD_FAIL)
 80026e2:	0020      	movs	r0, r4
 80026e4:	f7ff fde4 	bl	80022b0 <USBD_SetClassConfig>
 80026e8:	2802      	cmp	r0, #2
 80026ea:	d000      	beq.n	80026ee <USBD_StdDevReq+0x1a2>
 80026ec:	e77d      	b.n	80025ea <USBD_StdDevReq+0x9e>
 80026ee:	e7cb      	b.n	8002688 <USBD_StdDevReq+0x13c>
        if (cfgidx == 0U)
 80026f0:	2900      	cmp	r1, #0
 80026f2:	d106      	bne.n	8002702 <USBD_StdDevReq+0x1b6>
          pdev->dev_state = USBD_STATE_ADDRESSED;
 80026f4:	2202      	movs	r2, #2
          USBD_ClrClassConfig(pdev, cfgidx);
 80026f6:	0020      	movs	r0, r4
          pdev->dev_state = USBD_STATE_ADDRESSED;
 80026f8:	54e2      	strb	r2, [r4, r3]
          pdev->dev_config = cfgidx;
 80026fa:	6061      	str	r1, [r4, #4]
          USBD_ClrClassConfig(pdev, cfgidx);
 80026fc:	f7ff fde5 	bl	80022ca <USBD_ClrClassConfig>
 8002700:	e773      	b.n	80025ea <USBD_StdDevReq+0x9e>
        else if (cfgidx != pdev->dev_config)
 8002702:	6861      	ldr	r1, [r4, #4]
 8002704:	2901      	cmp	r1, #1
 8002706:	d100      	bne.n	800270a <USBD_StdDevReq+0x1be>
 8002708:	e76f      	b.n	80025ea <USBD_StdDevReq+0x9e>
          USBD_ClrClassConfig(pdev, (uint8_t)pdev->dev_config);
 800270a:	b2c9      	uxtb	r1, r1
 800270c:	0020      	movs	r0, r4
 800270e:	f7ff fddc 	bl	80022ca <USBD_ClrClassConfig>
          pdev->dev_config = cfgidx;
 8002712:	7829      	ldrb	r1, [r5, #0]
 8002714:	6061      	str	r1, [r4, #4]
 8002716:	e7e4      	b.n	80026e2 <USBD_StdDevReq+0x196>
  if (req->wLength != 1U)
 8002718:	88ca      	ldrh	r2, [r1, #6]
 800271a:	2a01      	cmp	r2, #1
 800271c:	d1b4      	bne.n	8002688 <USBD_StdDevReq+0x13c>
    switch (pdev->dev_state)
 800271e:	23a7      	movs	r3, #167	; 0xa7
 8002720:	009b      	lsls	r3, r3, #2
 8002722:	5ce3      	ldrb	r3, [r4, r3]
 8002724:	2b00      	cmp	r3, #0
 8002726:	d0af      	beq.n	8002688 <USBD_StdDevReq+0x13c>
 8002728:	2b02      	cmp	r3, #2
 800272a:	d906      	bls.n	800273a <USBD_StdDevReq+0x1ee>
        USBD_CtlSendData(pdev, (uint8_t *)(void *)&pdev->dev_config, 1U);
 800272c:	1d21      	adds	r1, r4, #4
    switch (pdev->dev_state)
 800272e:	2b03      	cmp	r3, #3
 8002730:	d1aa      	bne.n	8002688 <USBD_StdDevReq+0x13c>
      USBD_CtlSendData(pdev, (uint8_t *)(void *)&pdev->dev_config_status, 2U);
 8002732:	0020      	movs	r0, r4
 8002734:	f000 f930 	bl	8002998 <USBD_CtlSendData>
 8002738:	e72c      	b.n	8002594 <USBD_StdDevReq+0x48>
        pdev->dev_default_config = 0U;
 800273a:	2300      	movs	r3, #0
        USBD_CtlSendData(pdev, (uint8_t *)(void *)&pdev->dev_default_config, 1U);
 800273c:	0021      	movs	r1, r4
        pdev->dev_default_config = 0U;
 800273e:	60a3      	str	r3, [r4, #8]
        USBD_CtlSendData(pdev, (uint8_t *)(void *)&pdev->dev_default_config, 1U);
 8002740:	3108      	adds	r1, #8
 8002742:	e7f6      	b.n	8002732 <USBD_StdDevReq+0x1e6>
  switch (pdev->dev_state)
 8002744:	23a7      	movs	r3, #167	; 0xa7
 8002746:	009b      	lsls	r3, r3, #2
 8002748:	5ce3      	ldrb	r3, [r4, r3]
 800274a:	3b01      	subs	r3, #1
 800274c:	2b02      	cmp	r3, #2
 800274e:	d89b      	bhi.n	8002688 <USBD_StdDevReq+0x13c>
      if (req->wLength != 0x2U)
 8002750:	88cb      	ldrh	r3, [r1, #6]
 8002752:	2b02      	cmp	r3, #2
 8002754:	d198      	bne.n	8002688 <USBD_StdDevReq+0x13c>
      pdev->dev_config_status = 0U;
 8002756:	2200      	movs	r2, #0
 8002758:	60e2      	str	r2, [r4, #12]
      if (pdev->dev_remote_wakeup)
 800275a:	22a9      	movs	r2, #169	; 0xa9
 800275c:	0092      	lsls	r2, r2, #2
 800275e:	58a2      	ldr	r2, [r4, r2]
 8002760:	2a00      	cmp	r2, #0
 8002762:	d000      	beq.n	8002766 <USBD_StdDevReq+0x21a>
        pdev->dev_config_status |= USB_CONFIG_REMOTE_WAKEUP;
 8002764:	60e3      	str	r3, [r4, #12]
      USBD_CtlSendData(pdev, (uint8_t *)(void *)&pdev->dev_config_status, 2U);
 8002766:	0021      	movs	r1, r4
 8002768:	2202      	movs	r2, #2
 800276a:	310c      	adds	r1, #12
 800276c:	e7e1      	b.n	8002732 <USBD_StdDevReq+0x1e6>
  if (req->wValue == USB_FEATURE_REMOTE_WAKEUP)
 800276e:	884b      	ldrh	r3, [r1, #2]
 8002770:	2b01      	cmp	r3, #1
 8002772:	d000      	beq.n	8002776 <USBD_StdDevReq+0x22a>
 8002774:	e70e      	b.n	8002594 <USBD_StdDevReq+0x48>
    pdev->dev_remote_wakeup = 1U;
 8002776:	22a9      	movs	r2, #169	; 0xa9
 8002778:	0092      	lsls	r2, r2, #2
 800277a:	50a3      	str	r3, [r4, r2]
 800277c:	e735      	b.n	80025ea <USBD_StdDevReq+0x9e>
  switch (pdev->dev_state)
 800277e:	23a7      	movs	r3, #167	; 0xa7
 8002780:	009b      	lsls	r3, r3, #2
 8002782:	5ce3      	ldrb	r3, [r4, r3]
 8002784:	3b01      	subs	r3, #1
 8002786:	2b02      	cmp	r3, #2
 8002788:	d900      	bls.n	800278c <USBD_StdDevReq+0x240>
 800278a:	e77d      	b.n	8002688 <USBD_StdDevReq+0x13c>
      if (req->wValue == USB_FEATURE_REMOTE_WAKEUP)
 800278c:	884b      	ldrh	r3, [r1, #2]
 800278e:	2b01      	cmp	r3, #1
 8002790:	d000      	beq.n	8002794 <USBD_StdDevReq+0x248>
 8002792:	e6ff      	b.n	8002594 <USBD_StdDevReq+0x48>
        pdev->dev_remote_wakeup = 0U;
 8002794:	23a9      	movs	r3, #169	; 0xa9
 8002796:	2200      	movs	r2, #0
 8002798:	009b      	lsls	r3, r3, #2
 800279a:	50e2      	str	r2, [r4, r3]
 800279c:	e725      	b.n	80025ea <USBD_StdDevReq+0x9e>
 800279e:	46c0      	nop			; (mov r8, r8)
 80027a0:	0000029e 	.word	0x0000029e
 80027a4:	20000198 	.word	0x20000198

080027a8 <USBD_StdItfReq>:
  switch (req->bmRequest & USB_REQ_TYPE_MASK)
 80027a8:	2260      	movs	r2, #96	; 0x60
 80027aa:	780b      	ldrb	r3, [r1, #0]
{
 80027ac:	b570      	push	{r4, r5, r6, lr}
  switch (req->bmRequest & USB_REQ_TYPE_MASK)
 80027ae:	4013      	ands	r3, r2
{
 80027b0:	0004      	movs	r4, r0
 80027b2:	000d      	movs	r5, r1
  switch (req->bmRequest & USB_REQ_TYPE_MASK)
 80027b4:	2b20      	cmp	r3, #32
 80027b6:	d003      	beq.n	80027c0 <USBD_StdItfReq+0x18>
 80027b8:	2b40      	cmp	r3, #64	; 0x40
 80027ba:	d001      	beq.n	80027c0 <USBD_StdItfReq+0x18>
 80027bc:	2b00      	cmp	r3, #0
 80027be:	d119      	bne.n	80027f4 <USBD_StdItfReq+0x4c>
      switch (pdev->dev_state)
 80027c0:	23a7      	movs	r3, #167	; 0xa7
 80027c2:	009b      	lsls	r3, r3, #2
 80027c4:	5ce3      	ldrb	r3, [r4, r3]
 80027c6:	3b01      	subs	r3, #1
 80027c8:	2b02      	cmp	r3, #2
 80027ca:	d813      	bhi.n	80027f4 <USBD_StdItfReq+0x4c>
          if (LOBYTE(req->wIndex) <= USBD_MAX_NUM_INTERFACES)
 80027cc:	792b      	ldrb	r3, [r5, #4]
 80027ce:	2b01      	cmp	r3, #1
 80027d0:	d810      	bhi.n	80027f4 <USBD_StdItfReq+0x4c>
            ret = (USBD_StatusTypeDef)pdev->pClass->Setup(pdev, req);
 80027d2:	23ad      	movs	r3, #173	; 0xad
 80027d4:	009b      	lsls	r3, r3, #2
 80027d6:	58e3      	ldr	r3, [r4, r3]
 80027d8:	0029      	movs	r1, r5
 80027da:	689b      	ldr	r3, [r3, #8]
 80027dc:	0020      	movs	r0, r4
 80027de:	4798      	blx	r3
            if ((req->wLength == 0U) && (ret == USBD_OK))
 80027e0:	88eb      	ldrh	r3, [r5, #6]
 80027e2:	2b00      	cmp	r3, #0
 80027e4:	d104      	bne.n	80027f0 <USBD_StdItfReq+0x48>
 80027e6:	2800      	cmp	r0, #0
 80027e8:	d102      	bne.n	80027f0 <USBD_StdItfReq+0x48>
              USBD_CtlSendStatus(pdev);
 80027ea:	0020      	movs	r0, r4
 80027ec:	f000 f902 	bl	80029f4 <USBD_CtlSendStatus>
}
 80027f0:	2000      	movs	r0, #0
 80027f2:	bd70      	pop	{r4, r5, r6, pc}
          USBD_CtlError(pdev, req);
 80027f4:	0020      	movs	r0, r4
 80027f6:	f7ff fe9e 	bl	8002536 <USBD_CtlError.constprop.1>
          break;
 80027fa:	e7f9      	b.n	80027f0 <USBD_StdItfReq+0x48>

080027fc <USBD_StdEPReq>:
  switch (req->bmRequest & USB_REQ_TYPE_MASK)
 80027fc:	780a      	ldrb	r2, [r1, #0]
{
 80027fe:	000b      	movs	r3, r1
  switch (req->bmRequest & USB_REQ_TYPE_MASK)
 8002800:	2160      	movs	r1, #96	; 0x60
{
 8002802:	b570      	push	{r4, r5, r6, lr}
  switch (req->bmRequest & USB_REQ_TYPE_MASK)
 8002804:	400a      	ands	r2, r1
{
 8002806:	0004      	movs	r4, r0
  switch (req->bmRequest & USB_REQ_TYPE_MASK)
 8002808:	2a20      	cmp	r2, #32
 800280a:	d017      	beq.n	800283c <USBD_StdEPReq+0x40>
 800280c:	2a40      	cmp	r2, #64	; 0x40
 800280e:	d015      	beq.n	800283c <USBD_StdEPReq+0x40>
 8002810:	2a00      	cmp	r2, #0
 8002812:	d10f      	bne.n	8002834 <USBD_StdEPReq+0x38>
  ep_addr  = LOBYTE(req->wIndex);
 8002814:	8898      	ldrh	r0, [r3, #4]
      switch (req->bRequest)
 8002816:	785a      	ldrb	r2, [r3, #1]
  ep_addr  = LOBYTE(req->wIndex);
 8002818:	b2c1      	uxtb	r1, r0
      switch (req->bRequest)
 800281a:	2a01      	cmp	r2, #1
 800281c:	d026      	beq.n	800286c <USBD_StdEPReq+0x70>
 800281e:	2a00      	cmp	r2, #0
 8002820:	d03e      	beq.n	80028a0 <USBD_StdEPReq+0xa4>
 8002822:	2a03      	cmp	r2, #3
 8002824:	d106      	bne.n	8002834 <USBD_StdEPReq+0x38>
          switch (pdev->dev_state)
 8002826:	22a7      	movs	r2, #167	; 0xa7
 8002828:	0092      	lsls	r2, r2, #2
 800282a:	5ca2      	ldrb	r2, [r4, r2]
 800282c:	2a02      	cmp	r2, #2
 800282e:	d02d      	beq.n	800288c <USBD_StdEPReq+0x90>
 8002830:	2a03      	cmp	r2, #3
 8002832:	d00c      	beq.n	800284e <USBD_StdEPReq+0x52>
              USBD_CtlError(pdev, req);
 8002834:	0020      	movs	r0, r4
 8002836:	f7ff fe7e 	bl	8002536 <USBD_CtlError.constprop.1>
              break;
 800283a:	e006      	b.n	800284a <USBD_StdEPReq+0x4e>
      pdev->pClass->Setup(pdev, req);
 800283c:	22ad      	movs	r2, #173	; 0xad
 800283e:	0092      	lsls	r2, r2, #2
 8002840:	58a2      	ldr	r2, [r4, r2]
 8002842:	0019      	movs	r1, r3
 8002844:	6892      	ldr	r2, [r2, #8]
 8002846:	0020      	movs	r0, r4
 8002848:	4790      	blx	r2
}
 800284a:	2000      	movs	r0, #0
 800284c:	bd70      	pop	{r4, r5, r6, pc}
              if (req->wValue == USB_FEATURE_EP_HALT)
 800284e:	885a      	ldrh	r2, [r3, #2]
 8002850:	2a00      	cmp	r2, #0
 8002852:	d107      	bne.n	8002864 <USBD_StdEPReq+0x68>
                if ((ep_addr != 0x00U) &&
 8002854:	064a      	lsls	r2, r1, #25
 8002856:	d005      	beq.n	8002864 <USBD_StdEPReq+0x68>
                    (ep_addr != 0x80U) && (req->wLength == 0x00U))
 8002858:	88db      	ldrh	r3, [r3, #6]
 800285a:	2b00      	cmp	r3, #0
 800285c:	d102      	bne.n	8002864 <USBD_StdEPReq+0x68>
                  USBD_LL_StallEP(pdev, ep_addr);
 800285e:	0020      	movs	r0, r4
 8002860:	f000 fac8 	bl	8002df4 <USBD_LL_StallEP>
              USBD_CtlSendStatus(pdev);
 8002864:	0020      	movs	r0, r4
 8002866:	f000 f8c5 	bl	80029f4 <USBD_CtlSendStatus>
              break;
 800286a:	e7ee      	b.n	800284a <USBD_StdEPReq+0x4e>
          switch (pdev->dev_state)
 800286c:	22a7      	movs	r2, #167	; 0xa7
 800286e:	0092      	lsls	r2, r2, #2
 8002870:	5ca2      	ldrb	r2, [r4, r2]
 8002872:	2a02      	cmp	r2, #2
 8002874:	d00a      	beq.n	800288c <USBD_StdEPReq+0x90>
 8002876:	2a03      	cmp	r2, #3
 8002878:	d1dc      	bne.n	8002834 <USBD_StdEPReq+0x38>
              if (req->wValue == USB_FEATURE_EP_HALT)
 800287a:	885b      	ldrh	r3, [r3, #2]
 800287c:	2b00      	cmp	r3, #0
 800287e:	d1e4      	bne.n	800284a <USBD_StdEPReq+0x4e>
                if ((ep_addr & 0x7FU) != 0x00U)
 8002880:	064b      	lsls	r3, r1, #25
 8002882:	d0ef      	beq.n	8002864 <USBD_StdEPReq+0x68>
                  USBD_LL_ClearStallEP(pdev, ep_addr);
 8002884:	0020      	movs	r0, r4
 8002886:	f000 fac5 	bl	8002e14 <USBD_LL_ClearStallEP>
 800288a:	e7eb      	b.n	8002864 <USBD_StdEPReq+0x68>
              if ((ep_addr != 0x00U) && (ep_addr != 0x80U))
 800288c:	064b      	lsls	r3, r1, #25
 800288e:	d0d1      	beq.n	8002834 <USBD_StdEPReq+0x38>
                USBD_LL_StallEP(pdev, ep_addr);
 8002890:	0020      	movs	r0, r4
 8002892:	f000 faaf 	bl	8002df4 <USBD_LL_StallEP>
                USBD_LL_StallEP(pdev, 0x80U);
 8002896:	2180      	movs	r1, #128	; 0x80
 8002898:	0020      	movs	r0, r4
 800289a:	f000 faab 	bl	8002df4 <USBD_LL_StallEP>
 800289e:	e7d4      	b.n	800284a <USBD_StdEPReq+0x4e>
          switch (pdev->dev_state)
 80028a0:	23a7      	movs	r3, #167	; 0xa7
 80028a2:	009b      	lsls	r3, r3, #2
 80028a4:	5ce3      	ldrb	r3, [r4, r3]
 80028a6:	2b02      	cmp	r3, #2
 80028a8:	d017      	beq.n	80028da <USBD_StdEPReq+0xde>
 80028aa:	2b03      	cmp	r3, #3
 80028ac:	d1c2      	bne.n	8002834 <USBD_StdEPReq+0x38>
 80028ae:	220f      	movs	r2, #15
 80028b0:	2314      	movs	r3, #20
 80028b2:	400a      	ands	r2, r1
                if (pdev->ep_in[ep_addr & 0xFU].is_used == 0U)
 80028b4:	435a      	muls	r2, r3
 80028b6:	18a2      	adds	r2, r4, r2
              if ((ep_addr & 0x80U) == 0x80U)
 80028b8:	0600      	lsls	r0, r0, #24
 80028ba:	d51e      	bpl.n	80028fa <USBD_StdEPReq+0xfe>
                if (pdev->ep_in[ep_addr & 0xFU].is_used == 0U)
 80028bc:	6992      	ldr	r2, [r2, #24]
 80028be:	2a00      	cmp	r2, #0
 80028c0:	d0b8      	beq.n	8002834 <USBD_StdEPReq+0x38>
              pep = ((ep_addr & 0x80U) == 0x80U) ? &pdev->ep_in[ep_addr & 0x7FU] : \
 80028c2:	257f      	movs	r5, #127	; 0x7f
 80028c4:	400d      	ands	r5, r1
 80028c6:	3501      	adds	r5, #1
 80028c8:	435d      	muls	r5, r3
              if ((ep_addr == 0x00U) || (ep_addr == 0x80U))
 80028ca:	237f      	movs	r3, #127	; 0x7f
              pep = ((ep_addr & 0x80U) == 0x80U) ? &pdev->ep_in[ep_addr & 0x7FU] : \
 80028cc:	1965      	adds	r5, r4, r5
              if ((ep_addr == 0x00U) || (ep_addr == 0x80U))
 80028ce:	400b      	ands	r3, r1
 80028d0:	d11e      	bne.n	8002910 <USBD_StdEPReq+0x114>
                pep->status = 0x0001U;
 80028d2:	602b      	str	r3, [r5, #0]
              USBD_CtlSendData(pdev, (uint8_t *)(void *)&pep->status, 2U);
 80028d4:	2202      	movs	r2, #2
 80028d6:	0029      	movs	r1, r5
 80028d8:	e00b      	b.n	80028f2 <USBD_StdEPReq+0xf6>
              if ((ep_addr != 0x00U) && (ep_addr != 0x80U))
 80028da:	064b      	lsls	r3, r1, #25
 80028dc:	d1aa      	bne.n	8002834 <USBD_StdEPReq+0x38>
              pep = ((ep_addr & 0x80U) == 0x80U) ? &pdev->ep_in[ep_addr & 0x7FU] : \
 80028de:	0021      	movs	r1, r4
 80028e0:	3155      	adds	r1, #85	; 0x55
 80028e2:	31ff      	adds	r1, #255	; 0xff
 80028e4:	0603      	lsls	r3, r0, #24
 80028e6:	d501      	bpl.n	80028ec <USBD_StdEPReq+0xf0>
 80028e8:	3941      	subs	r1, #65	; 0x41
 80028ea:	39ff      	subs	r1, #255	; 0xff
              pep->status = 0x0000U;
 80028ec:	2300      	movs	r3, #0
              USBD_CtlSendData(pdev, (uint8_t *)(void *)&pep->status, 2U);
 80028ee:	2202      	movs	r2, #2
              pep->status = 0x0000U;
 80028f0:	600b      	str	r3, [r1, #0]
              USBD_CtlSendData(pdev, (uint8_t *)(void *)&pep->status, 2U);
 80028f2:	0020      	movs	r0, r4
 80028f4:	f000 f850 	bl	8002998 <USBD_CtlSendData>
              break;
 80028f8:	e7a7      	b.n	800284a <USBD_StdEPReq+0x4e>
                if (pdev->ep_out[ep_addr & 0xFU].is_used == 0U)
 80028fa:	32fc      	adds	r2, #252	; 0xfc
 80028fc:	6dd2      	ldr	r2, [r2, #92]	; 0x5c
 80028fe:	2a00      	cmp	r2, #0
 8002900:	d100      	bne.n	8002904 <USBD_StdEPReq+0x108>
 8002902:	e797      	b.n	8002834 <USBD_StdEPReq+0x38>
                    &pdev->ep_out[ep_addr & 0x7FU];
 8002904:	257f      	movs	r5, #127	; 0x7f
 8002906:	400d      	ands	r5, r1
              pep = ((ep_addr & 0x80U) == 0x80U) ? &pdev->ep_in[ep_addr & 0x7FU] : \
 8002908:	435d      	muls	r5, r3
 800290a:	3555      	adds	r5, #85	; 0x55
 800290c:	35ff      	adds	r5, #255	; 0xff
 800290e:	e7dc      	b.n	80028ca <USBD_StdEPReq+0xce>
              else if (USBD_LL_IsStallEP(pdev, ep_addr))
 8002910:	0020      	movs	r0, r4
 8002912:	f000 fa8f 	bl	8002e34 <USBD_LL_IsStallEP>
 8002916:	2800      	cmp	r0, #0
 8002918:	d001      	beq.n	800291e <USBD_StdEPReq+0x122>
                pep->status = 0x0001U;
 800291a:	2301      	movs	r3, #1
 800291c:	e7d9      	b.n	80028d2 <USBD_StdEPReq+0xd6>
                pep->status = 0x0000U;
 800291e:	6028      	str	r0, [r5, #0]
 8002920:	e7d8      	b.n	80028d4 <USBD_StdEPReq+0xd8>

08002922 <USBD_ParseSetupRequest>:
  req->bmRequest = *(uint8_t *)(pdata);
 8002922:	780b      	ldrb	r3, [r1, #0]
 8002924:	7003      	strb	r3, [r0, #0]
  req->bRequest = *(uint8_t *)(pdata + 1U);
 8002926:	784b      	ldrb	r3, [r1, #1]
 8002928:	7043      	strb	r3, [r0, #1]
  req->wValue = SWAPBYTE(pdata + 2U);
 800292a:	78ca      	ldrb	r2, [r1, #3]
 800292c:	788b      	ldrb	r3, [r1, #2]
 800292e:	0212      	lsls	r2, r2, #8
 8002930:	189b      	adds	r3, r3, r2
 8002932:	8043      	strh	r3, [r0, #2]
  req->wIndex = SWAPBYTE(pdata + 4U);
 8002934:	794a      	ldrb	r2, [r1, #5]
 8002936:	790b      	ldrb	r3, [r1, #4]
 8002938:	0212      	lsls	r2, r2, #8
 800293a:	189b      	adds	r3, r3, r2
 800293c:	8083      	strh	r3, [r0, #4]
  req->wLength = SWAPBYTE(pdata + 6U);
 800293e:	79ca      	ldrb	r2, [r1, #7]
 8002940:	798b      	ldrb	r3, [r1, #6]
 8002942:	0212      	lsls	r2, r2, #8
 8002944:	189b      	adds	r3, r3, r2
 8002946:	80c3      	strh	r3, [r0, #6]
}
 8002948:	4770      	bx	lr

0800294a <USBD_CtlError>:
{
 800294a:	b510      	push	{r4, lr}
 800294c:	0004      	movs	r4, r0
  USBD_LL_StallEP(pdev, 0x80U);
 800294e:	2180      	movs	r1, #128	; 0x80
 8002950:	f000 fa50 	bl	8002df4 <USBD_LL_StallEP>
  USBD_LL_StallEP(pdev, 0U);
 8002954:	2100      	movs	r1, #0
 8002956:	0020      	movs	r0, r4
 8002958:	f000 fa4c 	bl	8002df4 <USBD_LL_StallEP>
}
 800295c:	bd10      	pop	{r4, pc}

0800295e <USBD_GetString>:
  * @param  unicode : Formatted string buffer (unicode)
  * @param  len : descriptor length
  * @retval None
  */
void USBD_GetString(uint8_t *desc, uint8_t *unicode, uint16_t *len)
{
 800295e:	2300      	movs	r3, #0
 8002960:	b530      	push	{r4, r5, lr}
  uint8_t idx = 0U;

  if (desc != NULL)
 8002962:	4298      	cmp	r0, r3
 8002964:	d101      	bne.n	800296a <USBD_GetString+0xc>
    {
      unicode[idx++] = *desc++;
      unicode[idx++] =  0U;
    }
  }
}
 8002966:	bd30      	pop	{r4, r5, pc}
  */
static uint8_t USBD_GetLen(uint8_t *buf)
{
  uint8_t  len = 0U;

  while (*buf != '\0')
 8002968:	002b      	movs	r3, r5
 800296a:	5cc4      	ldrb	r4, [r0, r3]
 800296c:	1c5d      	adds	r5, r3, #1
 800296e:	2c00      	cmp	r4, #0
 8002970:	d1fa      	bne.n	8002968 <USBD_GetString+0xa>
    *len = (uint16_t)USBD_GetLen(desc) * 2U + 2U;
 8002972:	b2db      	uxtb	r3, r3
 8002974:	3301      	adds	r3, #1
 8002976:	005b      	lsls	r3, r3, #1
 8002978:	8013      	strh	r3, [r2, #0]
    unicode[idx++] = *(uint8_t *)(void *)len;
 800297a:	700b      	strb	r3, [r1, #0]
    unicode[idx++] = USB_DESC_TYPE_STRING;
 800297c:	2303      	movs	r3, #3
 800297e:	704b      	strb	r3, [r1, #1]
 8002980:	3b01      	subs	r3, #1
    while (*desc != '\0')
 8002982:	7805      	ldrb	r5, [r0, #0]
 8002984:	2d00      	cmp	r5, #0
 8002986:	d0ee      	beq.n	8002966 <USBD_GetString+0x8>
      unicode[idx++] = *desc++;
 8002988:	1c5a      	adds	r2, r3, #1
 800298a:	54cd      	strb	r5, [r1, r3]
 800298c:	b2d2      	uxtb	r2, r2
      unicode[idx++] =  0U;
 800298e:	3302      	adds	r3, #2
      unicode[idx++] = *desc++;
 8002990:	3001      	adds	r0, #1
      unicode[idx++] =  0U;
 8002992:	b2db      	uxtb	r3, r3
 8002994:	548c      	strb	r4, [r1, r2]
 8002996:	e7f4      	b.n	8002982 <USBD_GetString+0x24>

08002998 <USBD_CtlSendData>:
* @param  len: length of data to be sent
* @retval status
*/
USBD_StatusTypeDef USBD_CtlSendData(USBD_HandleTypeDef *pdev,
                                    uint8_t *pbuf, uint16_t len)
{
 8002998:	0013      	movs	r3, r2
  /* Set EP0 State */
  pdev->ep0_state = USBD_EP0_DATA_IN;
 800299a:	22a5      	movs	r2, #165	; 0xa5
{
 800299c:	b510      	push	{r4, lr}
  pdev->ep0_state = USBD_EP0_DATA_IN;
 800299e:	2402      	movs	r4, #2
 80029a0:	0092      	lsls	r2, r2, #2
 80029a2:	5084      	str	r4, [r0, r2]
  pdev->ep_in[0].total_length = len;
  pdev->ep_in[0].rem_length   = len;

  /* Start the transfer */
  USBD_LL_Transmit(pdev, 0x00U, pbuf, len);
 80029a4:	000a      	movs	r2, r1
  pdev->ep_in[0].total_length = len;
 80029a6:	61c3      	str	r3, [r0, #28]
  pdev->ep_in[0].rem_length   = len;
 80029a8:	6203      	str	r3, [r0, #32]
  USBD_LL_Transmit(pdev, 0x00U, pbuf, len);
 80029aa:	2100      	movs	r1, #0
 80029ac:	f000 fa64 	bl	8002e78 <USBD_LL_Transmit>

  return USBD_OK;
}
 80029b0:	2000      	movs	r0, #0
 80029b2:	bd10      	pop	{r4, pc}

080029b4 <USBD_CtlContinueSendData>:
* @param  len: length of data to be sent
* @retval status
*/
USBD_StatusTypeDef USBD_CtlContinueSendData(USBD_HandleTypeDef *pdev,
                                            uint8_t *pbuf, uint16_t len)
{
 80029b4:	b510      	push	{r4, lr}
 80029b6:	0013      	movs	r3, r2
  /* Start the next transfer */
  USBD_LL_Transmit(pdev, 0x00U, pbuf, len);
 80029b8:	000a      	movs	r2, r1
 80029ba:	2100      	movs	r1, #0
 80029bc:	f000 fa5c 	bl	8002e78 <USBD_LL_Transmit>

  return USBD_OK;
}
 80029c0:	2000      	movs	r0, #0
 80029c2:	bd10      	pop	{r4, pc}

080029c4 <USBD_CtlPrepareRx>:
* @param  len: length of data to be received
* @retval status
*/
USBD_StatusTypeDef USBD_CtlPrepareRx(USBD_HandleTypeDef *pdev,
                                     uint8_t *pbuf, uint16_t len)
{
 80029c4:	0013      	movs	r3, r2
  /* Set EP0 State */
  pdev->ep0_state = USBD_EP0_DATA_OUT;
 80029c6:	22a5      	movs	r2, #165	; 0xa5
{
 80029c8:	b510      	push	{r4, lr}
  pdev->ep0_state = USBD_EP0_DATA_OUT;
 80029ca:	2403      	movs	r4, #3
 80029cc:	0092      	lsls	r2, r2, #2
 80029ce:	5084      	str	r4, [r0, r2]
  pdev->ep_out[0].total_length = len;
 80029d0:	0002      	movs	r2, r0
 80029d2:	32fc      	adds	r2, #252	; 0xfc
 80029d4:	6613      	str	r3, [r2, #96]	; 0x60
  pdev->ep_out[0].rem_length   = len;
 80029d6:	6653      	str	r3, [r2, #100]	; 0x64

  /* Start the transfer */
  USBD_LL_PrepareReceive(pdev, 0U, pbuf, len);
 80029d8:	000a      	movs	r2, r1
 80029da:	2100      	movs	r1, #0
 80029dc:	f000 fa5c 	bl	8002e98 <USBD_LL_PrepareReceive>

  return USBD_OK;
}
 80029e0:	2000      	movs	r0, #0
 80029e2:	bd10      	pop	{r4, pc}

080029e4 <USBD_CtlContinueRx>:
* @param  len: length of data to be received
* @retval status
*/
USBD_StatusTypeDef USBD_CtlContinueRx(USBD_HandleTypeDef *pdev,
                                      uint8_t *pbuf, uint16_t len)
{
 80029e4:	b510      	push	{r4, lr}
 80029e6:	0013      	movs	r3, r2
  USBD_LL_PrepareReceive(pdev, 0U, pbuf, len);
 80029e8:	000a      	movs	r2, r1
 80029ea:	2100      	movs	r1, #0
 80029ec:	f000 fa54 	bl	8002e98 <USBD_LL_PrepareReceive>

  return USBD_OK;
}
 80029f0:	2000      	movs	r0, #0
 80029f2:	bd10      	pop	{r4, pc}

080029f4 <USBD_CtlSendStatus>:
* @retval status
*/
USBD_StatusTypeDef USBD_CtlSendStatus(USBD_HandleTypeDef *pdev)
{
  /* Set EP0 State */
  pdev->ep0_state = USBD_EP0_STATUS_IN;
 80029f4:	23a5      	movs	r3, #165	; 0xa5
 80029f6:	2204      	movs	r2, #4
 80029f8:	009b      	lsls	r3, r3, #2
{
 80029fa:	b510      	push	{r4, lr}
  pdev->ep0_state = USBD_EP0_STATUS_IN;
 80029fc:	50c2      	str	r2, [r0, r3]

  /* Start the transfer */
  USBD_LL_Transmit(pdev, 0x00U, NULL, 0U);
 80029fe:	2300      	movs	r3, #0
 8002a00:	001a      	movs	r2, r3
 8002a02:	0019      	movs	r1, r3
 8002a04:	f000 fa38 	bl	8002e78 <USBD_LL_Transmit>

  return USBD_OK;
}
 8002a08:	2000      	movs	r0, #0
 8002a0a:	bd10      	pop	{r4, pc}

08002a0c <USBD_CtlReceiveStatus>:
* @retval status
*/
USBD_StatusTypeDef USBD_CtlReceiveStatus(USBD_HandleTypeDef *pdev)
{
  /* Set EP0 State */
  pdev->ep0_state = USBD_EP0_STATUS_OUT;
 8002a0c:	23a5      	movs	r3, #165	; 0xa5
 8002a0e:	2205      	movs	r2, #5
 8002a10:	009b      	lsls	r3, r3, #2
{
 8002a12:	b510      	push	{r4, lr}
  pdev->ep0_state = USBD_EP0_STATUS_OUT;
 8002a14:	50c2      	str	r2, [r0, r3]

  /* Start the transfer */
  USBD_LL_PrepareReceive(pdev, 0U, NULL, 0U);
 8002a16:	2300      	movs	r3, #0
 8002a18:	001a      	movs	r2, r3
 8002a1a:	0019      	movs	r1, r3
 8002a1c:	f000 fa3c 	bl	8002e98 <USBD_LL_PrepareReceive>

  return USBD_OK;
}
 8002a20:	2000      	movs	r0, #0
 8002a22:	bd10      	pop	{r4, pc}

08002a24 <MX_USB_DEVICE_Init>:
/**
  * Init USB device Library, add supported class and start the library
  * @retval None
  */
void MX_USB_DEVICE_Init(void)
{
 8002a24:	b510      	push	{r4, lr}
  /* USER CODE BEGIN USB_DEVICE_Init_PreTreatment */

  /* USER CODE END USB_DEVICE_Init_PreTreatment */

  /* Init Device Library, add supported class and start the library. */
  if (USBD_Init(&hUsbDeviceFS, &FS_Desc, DEVICE_FS) != USBD_OK)
 8002a26:	4c11      	ldr	r4, [pc, #68]	; (8002a6c <MX_USB_DEVICE_Init+0x48>)
 8002a28:	2200      	movs	r2, #0
 8002a2a:	4911      	ldr	r1, [pc, #68]	; (8002a70 <MX_USB_DEVICE_Init+0x4c>)
 8002a2c:	0020      	movs	r0, r4
 8002a2e:	f7ff fc17 	bl	8002260 <USBD_Init>
 8002a32:	2800      	cmp	r0, #0
 8002a34:	d001      	beq.n	8002a3a <MX_USB_DEVICE_Init+0x16>
  {
    Error_Handler();
 8002a36:	f7fd fda9 	bl	800058c <Error_Handler>
  }
  if (USBD_RegisterClass(&hUsbDeviceFS, &USBD_CDC) != USBD_OK)
 8002a3a:	490e      	ldr	r1, [pc, #56]	; (8002a74 <MX_USB_DEVICE_Init+0x50>)
 8002a3c:	0020      	movs	r0, r4
 8002a3e:	f7ff fc29 	bl	8002294 <USBD_RegisterClass>
 8002a42:	2800      	cmp	r0, #0
 8002a44:	d001      	beq.n	8002a4a <MX_USB_DEVICE_Init+0x26>
  {
    Error_Handler();
 8002a46:	f7fd fda1 	bl	800058c <Error_Handler>
  }
  if (USBD_CDC_RegisterInterface(&hUsbDeviceFS, &USBD_Interface_fops_FS) != USBD_OK)
 8002a4a:	490b      	ldr	r1, [pc, #44]	; (8002a78 <MX_USB_DEVICE_Init+0x54>)
 8002a4c:	0020      	movs	r0, r4
 8002a4e:	f7ff fbb8 	bl	80021c2 <USBD_CDC_RegisterInterface>
 8002a52:	2800      	cmp	r0, #0
 8002a54:	d001      	beq.n	8002a5a <MX_USB_DEVICE_Init+0x36>
  {
    Error_Handler();
 8002a56:	f7fd fd99 	bl	800058c <Error_Handler>
  }
  if (USBD_Start(&hUsbDeviceFS) != USBD_OK)
 8002a5a:	0020      	movs	r0, r4
 8002a5c:	f7ff fc23 	bl	80022a6 <USBD_Start>
 8002a60:	2800      	cmp	r0, #0
 8002a62:	d001      	beq.n	8002a68 <MX_USB_DEVICE_Init+0x44>
  {
    Error_Handler();
 8002a64:	f7fd fd92 	bl	800058c <Error_Handler>
  }

  /* USER CODE BEGIN USB_DEVICE_Init_PostTreatment */

  /* USER CODE END USB_DEVICE_Init_PostTreatment */
}
 8002a68:	bd10      	pop	{r4, pc}
 8002a6a:	46c0      	nop			; (mov r8, r8)
 8002a6c:	20000458 	.word	0x20000458
 8002a70:	2000012c 	.word	0x2000012c
 8002a74:	2000000c 	.word	0x2000000c
 8002a78:	2000011c 	.word	0x2000011c

08002a7c <CDC_DeInit_FS>:
static int8_t CDC_DeInit_FS(void)
{
  /* USER CODE BEGIN 4 */
	return (USBD_OK);
  /* USER CODE END 4 */
}
 8002a7c:	2000      	movs	r0, #0
 8002a7e:	4770      	bx	lr

08002a80 <CDC_Control_FS>:
		break;
	}

	return (USBD_OK);
  /* USER CODE END 5 */
}
 8002a80:	2000      	movs	r0, #0
 8002a82:	4770      	bx	lr

08002a84 <CDC_Init_FS>:
{
 8002a84:	b510      	push	{r4, lr}
	USBD_CDC_SetTxBuffer(&hUsbDeviceFS, UserTxBufferFS, 0);
 8002a86:	4c06      	ldr	r4, [pc, #24]	; (8002aa0 <CDC_Init_FS+0x1c>)
 8002a88:	2200      	movs	r2, #0
 8002a8a:	4906      	ldr	r1, [pc, #24]	; (8002aa4 <CDC_Init_FS+0x20>)
 8002a8c:	0020      	movs	r0, r4
 8002a8e:	f7ff fba1 	bl	80021d4 <USBD_CDC_SetTxBuffer>
	USBD_CDC_SetRxBuffer(&hUsbDeviceFS, UserRxBufferFS);
 8002a92:	4905      	ldr	r1, [pc, #20]	; (8002aa8 <CDC_Init_FS+0x24>)
 8002a94:	0020      	movs	r0, r4
 8002a96:	f7ff fba8 	bl	80021ea <USBD_CDC_SetRxBuffer>
}
 8002a9a:	2000      	movs	r0, #0
 8002a9c:	bd10      	pop	{r4, pc}
 8002a9e:	46c0      	nop			; (mov r8, r8)
 8002aa0:	20000458 	.word	0x20000458
 8002aa4:	20000780 	.word	0x20000780
 8002aa8:	2000071c 	.word	0x2000071c

08002aac <CDC_Transmit_FS>:
  * @param  Buf: Buffer of data to be sent
  * @param  Len: Number of data to be sent (in bytes)
  * @retval USBD_OK if all operations are OK else USBD_FAIL or USBD_BUSY
  */
uint8_t CDC_Transmit_FS(uint8_t* Buf, uint16_t Len)
{
 8002aac:	000a      	movs	r2, r1
  uint8_t result = USBD_OK;
  /* USER CODE BEGIN 7 */
	USBD_CDC_HandleTypeDef *hcdc =
 8002aae:	21ae      	movs	r1, #174	; 0xae
{
 8002ab0:	b510      	push	{r4, lr}
	USBD_CDC_HandleTypeDef *hcdc =
 8002ab2:	4c08      	ldr	r4, [pc, #32]	; (8002ad4 <CDC_Transmit_FS+0x28>)
 8002ab4:	0089      	lsls	r1, r1, #2
{
 8002ab6:	0003      	movs	r3, r0
	USBD_CDC_HandleTypeDef *hcdc =
 8002ab8:	5860      	ldr	r0, [r4, r1]
			(USBD_CDC_HandleTypeDef*) hUsbDeviceFS.pClassData;
	if (hcdc->TxState != 0) {
 8002aba:	39a4      	subs	r1, #164	; 0xa4
 8002abc:	5841      	ldr	r1, [r0, r1]
		return USBD_BUSY;
 8002abe:	2001      	movs	r0, #1
	if (hcdc->TxState != 0) {
 8002ac0:	2900      	cmp	r1, #0
 8002ac2:	d106      	bne.n	8002ad2 <CDC_Transmit_FS+0x26>
	}
	USBD_CDC_SetTxBuffer(&hUsbDeviceFS, Buf, Len);
 8002ac4:	0019      	movs	r1, r3
 8002ac6:	0020      	movs	r0, r4
 8002ac8:	f7ff fb84 	bl	80021d4 <USBD_CDC_SetTxBuffer>
	result = USBD_CDC_TransmitPacket(&hUsbDeviceFS);
 8002acc:	0020      	movs	r0, r4
 8002ace:	f7ff fb93 	bl	80021f8 <USBD_CDC_TransmitPacket>
  /* USER CODE END 7 */
  return result;
}
 8002ad2:	bd10      	pop	{r4, pc}
 8002ad4:	20000458 	.word	0x20000458

08002ad8 <CDC_Receive_FS>:
{
 8002ad8:	b570      	push	{r4, r5, r6, lr}
 8002ada:	0004      	movs	r4, r0
	USBD_CDC_SetRxBuffer(&hUsbDeviceFS, &Buf[0]);
 8002adc:	4d0e      	ldr	r5, [pc, #56]	; (8002b18 <CDC_Receive_FS+0x40>)
 8002ade:	0001      	movs	r1, r0
 8002ae0:	0028      	movs	r0, r5
 8002ae2:	f7ff fb82 	bl	80021ea <USBD_CDC_SetRxBuffer>
	USBD_CDC_ReceivePacket(&hUsbDeviceFS);
 8002ae6:	0028      	movs	r0, r5
 8002ae8:	f7ff fba2 	bl	8002230 <USBD_CDC_ReceivePacket>
	switch (Buf[0]) {
 8002aec:	7823      	ldrb	r3, [r4, #0]
 8002aee:	2b32      	cmp	r3, #50	; 0x32
 8002af0:	d003      	beq.n	8002afa <CDC_Receive_FS+0x22>
 8002af2:	2b33      	cmp	r3, #51	; 0x33
 8002af4:	d009      	beq.n	8002b0a <CDC_Receive_FS+0x32>
}
 8002af6:	2000      	movs	r0, #0
 8002af8:	bd70      	pop	{r4, r5, r6, pc}
		CDC_Transmit_FS((uint8_t*) "USB2 Activated\r\n", 16);
 8002afa:	2110      	movs	r1, #16
 8002afc:	4807      	ldr	r0, [pc, #28]	; (8002b1c <CDC_Receive_FS+0x44>)
 8002afe:	f7ff ffd5 	bl	8002aac <CDC_Transmit_FS>
		xFlag = 'a';
 8002b02:	2261      	movs	r2, #97	; 0x61
 8002b04:	4b06      	ldr	r3, [pc, #24]	; (8002b20 <CDC_Receive_FS+0x48>)
		xFlag = 'b';
 8002b06:	701a      	strb	r2, [r3, #0]
		break;
 8002b08:	e7f5      	b.n	8002af6 <CDC_Receive_FS+0x1e>
		CDC_Transmit_FS((uint8_t*) "USB3 Activated\r\n", 16);
 8002b0a:	2110      	movs	r1, #16
 8002b0c:	4805      	ldr	r0, [pc, #20]	; (8002b24 <CDC_Receive_FS+0x4c>)
 8002b0e:	f7ff ffcd 	bl	8002aac <CDC_Transmit_FS>
		xFlag = 'b';
 8002b12:	4b03      	ldr	r3, [pc, #12]	; (8002b20 <CDC_Receive_FS+0x48>)
 8002b14:	2262      	movs	r2, #98	; 0x62
 8002b16:	e7f6      	b.n	8002b06 <CDC_Receive_FS+0x2e>
 8002b18:	20000458 	.word	0x20000458
 8002b1c:	08002f44 	.word	0x08002f44
 8002b20:	20000199 	.word	0x20000199
 8002b24:	08002f55 	.word	0x08002f55

08002b28 <USBD_FS_DeviceDescriptor>:
  * @retval Pointer to descriptor buffer
  */
uint8_t * USBD_FS_DeviceDescriptor(USBD_SpeedTypeDef speed, uint16_t *length)
{
  UNUSED(speed);
  *length = sizeof(USBD_FS_DeviceDesc);
 8002b28:	2312      	movs	r3, #18
  return USBD_FS_DeviceDesc;
}
 8002b2a:	4801      	ldr	r0, [pc, #4]	; (8002b30 <USBD_FS_DeviceDescriptor+0x8>)
  *length = sizeof(USBD_FS_DeviceDesc);
 8002b2c:	800b      	strh	r3, [r1, #0]
}
 8002b2e:	4770      	bx	lr
 8002b30:	20000148 	.word	0x20000148

08002b34 <USBD_FS_LangIDStrDescriptor>:
  * @retval Pointer to descriptor buffer
  */
uint8_t * USBD_FS_LangIDStrDescriptor(USBD_SpeedTypeDef speed, uint16_t *length)
{
  UNUSED(speed);
  *length = sizeof(USBD_LangIDDesc);
 8002b34:	2304      	movs	r3, #4
  return USBD_LangIDDesc;
}
 8002b36:	4801      	ldr	r0, [pc, #4]	; (8002b3c <USBD_FS_LangIDStrDescriptor+0x8>)
  *length = sizeof(USBD_LangIDDesc);
 8002b38:	800b      	strh	r3, [r1, #0]
}
 8002b3a:	4770      	bx	lr
 8002b3c:	2000015c 	.word	0x2000015c

08002b40 <IntToUnicode>:
  * @param  pbuf: pointer to the buffer
  * @param  len: buffer length
  * @retval None
  */
static void IntToUnicode(uint32_t value, uint8_t * pbuf, uint8_t len)
{
 8002b40:	b530      	push	{r4, r5, lr}
      pbuf[2 * idx] = (value >> 28) + 'A' - 10;
    }

    value = value << 4;

    pbuf[2 * idx + 1] = 0;
 8002b42:	2500      	movs	r5, #0
 8002b44:	3a01      	subs	r2, #1
 8002b46:	b2d2      	uxtb	r2, r2
 8002b48:	0052      	lsls	r2, r2, #1
 8002b4a:	1c8b      	adds	r3, r1, #2
 8002b4c:	18d2      	adds	r2, r2, r3
    if (((value >> 28)) < 0xA)
 8002b4e:	0f04      	lsrs	r4, r0, #28
 8002b50:	b2e3      	uxtb	r3, r4
 8002b52:	2c09      	cmp	r4, #9
 8002b54:	d807      	bhi.n	8002b66 <IntToUnicode+0x26>
      pbuf[2 * idx] = (value >> 28) + '0';
 8002b56:	3330      	adds	r3, #48	; 0x30
      pbuf[2 * idx] = (value >> 28) + 'A' - 10;
 8002b58:	700b      	strb	r3, [r1, #0]
    pbuf[2 * idx + 1] = 0;
 8002b5a:	704d      	strb	r5, [r1, #1]
 8002b5c:	3102      	adds	r1, #2
    value = value << 4;
 8002b5e:	0100      	lsls	r0, r0, #4
  for (idx = 0; idx < len; idx++)
 8002b60:	428a      	cmp	r2, r1
 8002b62:	d1f4      	bne.n	8002b4e <IntToUnicode+0xe>
  }
}
 8002b64:	bd30      	pop	{r4, r5, pc}
      pbuf[2 * idx] = (value >> 28) + 'A' - 10;
 8002b66:	3337      	adds	r3, #55	; 0x37
 8002b68:	e7f6      	b.n	8002b58 <IntToUnicode+0x18>
	...

08002b6c <USBD_FS_SerialStrDescriptor>:
  *length = USB_SIZ_STRING_SERIAL;
 8002b6c:	231a      	movs	r3, #26
{
 8002b6e:	b570      	push	{r4, r5, r6, lr}
  *length = USB_SIZ_STRING_SERIAL;
 8002b70:	800b      	strh	r3, [r1, #0]
  deviceserial0 = *(uint32_t *) DEVICE_ID1;
 8002b72:	4b0b      	ldr	r3, [pc, #44]	; (8002ba0 <USBD_FS_SerialStrDescriptor+0x34>)
 8002b74:	4c0b      	ldr	r4, [pc, #44]	; (8002ba4 <USBD_FS_SerialStrDescriptor+0x38>)
 8002b76:	6818      	ldr	r0, [r3, #0]
  deviceserial2 = *(uint32_t *) DEVICE_ID3;
 8002b78:	4b0b      	ldr	r3, [pc, #44]	; (8002ba8 <USBD_FS_SerialStrDescriptor+0x3c>)
  deviceserial0 += deviceserial2;
 8002b7a:	681b      	ldr	r3, [r3, #0]
 8002b7c:	18c0      	adds	r0, r0, r3
  if (deviceserial0 != 0)
 8002b7e:	2800      	cmp	r0, #0
 8002b80:	d00b      	beq.n	8002b9a <USBD_FS_SerialStrDescriptor+0x2e>
  deviceserial1 = *(uint32_t *) DEVICE_ID2;
 8002b82:	4b0a      	ldr	r3, [pc, #40]	; (8002bac <USBD_FS_SerialStrDescriptor+0x40>)
    IntToUnicode(deviceserial0, &USBD_StringSerial[2], 8);
 8002b84:	1ca1      	adds	r1, r4, #2
 8002b86:	2208      	movs	r2, #8
  deviceserial1 = *(uint32_t *) DEVICE_ID2;
 8002b88:	681d      	ldr	r5, [r3, #0]
    IntToUnicode(deviceserial0, &USBD_StringSerial[2], 8);
 8002b8a:	f7ff ffd9 	bl	8002b40 <IntToUnicode>
    IntToUnicode(deviceserial1, &USBD_StringSerial[18], 4);
 8002b8e:	0021      	movs	r1, r4
 8002b90:	2204      	movs	r2, #4
 8002b92:	3112      	adds	r1, #18
 8002b94:	0028      	movs	r0, r5
 8002b96:	f7ff ffd3 	bl	8002b40 <IntToUnicode>
}
 8002b9a:	0020      	movs	r0, r4
 8002b9c:	bd70      	pop	{r4, r5, r6, pc}
 8002b9e:	46c0      	nop			; (mov r8, r8)
 8002ba0:	1ffff7ac 	.word	0x1ffff7ac
 8002ba4:	20000160 	.word	0x20000160
 8002ba8:	1ffff7b4 	.word	0x1ffff7b4
 8002bac:	1ffff7b0 	.word	0x1ffff7b0

08002bb0 <USBD_FS_ManufacturerStrDescriptor>:
{
 8002bb0:	b510      	push	{r4, lr}
  USBD_GetString((uint8_t *)USBD_MANUFACTURER_STRING, USBD_StrDesc, length);
 8002bb2:	4c04      	ldr	r4, [pc, #16]	; (8002bc4 <USBD_FS_ManufacturerStrDescriptor+0x14>)
{
 8002bb4:	000a      	movs	r2, r1
  USBD_GetString((uint8_t *)USBD_MANUFACTURER_STRING, USBD_StrDesc, length);
 8002bb6:	4804      	ldr	r0, [pc, #16]	; (8002bc8 <USBD_FS_ManufacturerStrDescriptor+0x18>)
 8002bb8:	0021      	movs	r1, r4
 8002bba:	f7ff fed0 	bl	800295e <USBD_GetString>
}
 8002bbe:	0020      	movs	r0, r4
 8002bc0:	bd10      	pop	{r4, pc}
 8002bc2:	46c0      	nop			; (mov r8, r8)
 8002bc4:	200007e4 	.word	0x200007e4
 8002bc8:	08002f7f 	.word	0x08002f7f

08002bcc <USBD_FS_ProductStrDescriptor>:
{
 8002bcc:	b510      	push	{r4, lr}
    USBD_GetString((uint8_t *)USBD_PRODUCT_STRING_FS, USBD_StrDesc, length);
 8002bce:	4c04      	ldr	r4, [pc, #16]	; (8002be0 <USBD_FS_ProductStrDescriptor+0x14>)
{
 8002bd0:	000a      	movs	r2, r1
    USBD_GetString((uint8_t *)USBD_PRODUCT_STRING_FS, USBD_StrDesc, length);
 8002bd2:	4804      	ldr	r0, [pc, #16]	; (8002be4 <USBD_FS_ProductStrDescriptor+0x18>)
 8002bd4:	0021      	movs	r1, r4
 8002bd6:	f7ff fec2 	bl	800295e <USBD_GetString>
}
 8002bda:	0020      	movs	r0, r4
 8002bdc:	bd10      	pop	{r4, pc}
 8002bde:	46c0      	nop			; (mov r8, r8)
 8002be0:	200007e4 	.word	0x200007e4
 8002be4:	08002f89 	.word	0x08002f89

08002be8 <USBD_FS_ConfigStrDescriptor>:
{
 8002be8:	b510      	push	{r4, lr}
    USBD_GetString((uint8_t *)USBD_CONFIGURATION_STRING_FS, USBD_StrDesc, length);
 8002bea:	4c04      	ldr	r4, [pc, #16]	; (8002bfc <USBD_FS_ConfigStrDescriptor+0x14>)
{
 8002bec:	000a      	movs	r2, r1
    USBD_GetString((uint8_t *)USBD_CONFIGURATION_STRING_FS, USBD_StrDesc, length);
 8002bee:	4804      	ldr	r0, [pc, #16]	; (8002c00 <USBD_FS_ConfigStrDescriptor+0x18>)
 8002bf0:	0021      	movs	r1, r4
 8002bf2:	f7ff feb4 	bl	800295e <USBD_GetString>
}
 8002bf6:	0020      	movs	r0, r4
 8002bf8:	bd10      	pop	{r4, pc}
 8002bfa:	46c0      	nop			; (mov r8, r8)
 8002bfc:	200007e4 	.word	0x200007e4
 8002c00:	08002f66 	.word	0x08002f66

08002c04 <USBD_FS_InterfaceStrDescriptor>:
{
 8002c04:	b510      	push	{r4, lr}
    USBD_GetString((uint8_t *)USBD_INTERFACE_STRING_FS, USBD_StrDesc, length);
 8002c06:	4c04      	ldr	r4, [pc, #16]	; (8002c18 <USBD_FS_InterfaceStrDescriptor+0x14>)
{
 8002c08:	000a      	movs	r2, r1
    USBD_GetString((uint8_t *)USBD_INTERFACE_STRING_FS, USBD_StrDesc, length);
 8002c0a:	4804      	ldr	r0, [pc, #16]	; (8002c1c <USBD_FS_InterfaceStrDescriptor+0x18>)
 8002c0c:	0021      	movs	r1, r4
 8002c0e:	f7ff fea6 	bl	800295e <USBD_GetString>
}
 8002c12:	0020      	movs	r0, r4
 8002c14:	bd10      	pop	{r4, pc}
 8002c16:	46c0      	nop			; (mov r8, r8)
 8002c18:	200007e4 	.word	0x200007e4
 8002c1c:	08002f71 	.word	0x08002f71

08002c20 <HAL_PCD_MspInit>:
                       LL Driver Callbacks (PCD -> USB Device Library)
*******************************************************************************/
/* MSP Init */

void HAL_PCD_MspInit(PCD_HandleTypeDef* pcdHandle)
{
 8002c20:	b507      	push	{r0, r1, r2, lr}
  if(pcdHandle->Instance==USB)
 8002c22:	4b0b      	ldr	r3, [pc, #44]	; (8002c50 <HAL_PCD_MspInit+0x30>)
 8002c24:	6802      	ldr	r2, [r0, #0]
 8002c26:	429a      	cmp	r2, r3
 8002c28:	d111      	bne.n	8002c4e <HAL_PCD_MspInit+0x2e>
  {
  /* USER CODE BEGIN USB_MspInit 0 */

  /* USER CODE END USB_MspInit 0 */
    /* Peripheral clock enable */
    __HAL_RCC_USB_CLK_ENABLE();
 8002c2a:	2080      	movs	r0, #128	; 0x80
 8002c2c:	4a09      	ldr	r2, [pc, #36]	; (8002c54 <HAL_PCD_MspInit+0x34>)
 8002c2e:	0400      	lsls	r0, r0, #16
 8002c30:	69d1      	ldr	r1, [r2, #28]
 8002c32:	4301      	orrs	r1, r0
 8002c34:	61d1      	str	r1, [r2, #28]
 8002c36:	69d3      	ldr	r3, [r2, #28]

    /* Peripheral interrupt init */
    HAL_NVIC_SetPriority(USB_IRQn, 0, 0);
 8002c38:	2200      	movs	r2, #0
    __HAL_RCC_USB_CLK_ENABLE();
 8002c3a:	4003      	ands	r3, r0
 8002c3c:	9301      	str	r3, [sp, #4]
    HAL_NVIC_SetPriority(USB_IRQn, 0, 0);
 8002c3e:	201f      	movs	r0, #31
 8002c40:	0011      	movs	r1, r2
    __HAL_RCC_USB_CLK_ENABLE();
 8002c42:	9b01      	ldr	r3, [sp, #4]
    HAL_NVIC_SetPriority(USB_IRQn, 0, 0);
 8002c44:	f7fe f876 	bl	8000d34 <HAL_NVIC_SetPriority>
    HAL_NVIC_EnableIRQ(USB_IRQn);
 8002c48:	201f      	movs	r0, #31
 8002c4a:	f7fe f89d 	bl	8000d88 <HAL_NVIC_EnableIRQ>
  /* USER CODE BEGIN USB_MspInit 1 */

  /* USER CODE END USB_MspInit 1 */
  }
}
 8002c4e:	bd07      	pop	{r0, r1, r2, pc}
 8002c50:	40005c00 	.word	0x40005c00
 8002c54:	40021000 	.word	0x40021000

08002c58 <HAL_PCD_SetupStageCallback>:
static void PCD_SetupStageCallback(PCD_HandleTypeDef *hpcd)
#else
void HAL_PCD_SetupStageCallback(PCD_HandleTypeDef *hpcd)
#endif /* USE_HAL_PCD_REGISTER_CALLBACKS */
{
  USBD_LL_SetupStage((USBD_HandleTypeDef*)hpcd->pData, (uint8_t *)hpcd->Setup);
 8002c58:	238c      	movs	r3, #140	; 0x8c
{
 8002c5a:	b510      	push	{r4, lr}
  USBD_LL_SetupStage((USBD_HandleTypeDef*)hpcd->pData, (uint8_t *)hpcd->Setup);
 8002c5c:	009b      	lsls	r3, r3, #2
 8002c5e:	18c1      	adds	r1, r0, r3
 8002c60:	3340      	adds	r3, #64	; 0x40
 8002c62:	58c0      	ldr	r0, [r0, r3]
 8002c64:	f7ff fb3a 	bl	80022dc <USBD_LL_SetupStage>
}
 8002c68:	bd10      	pop	{r4, pc}

08002c6a <HAL_PCD_DataOutStageCallback>:
static void PCD_DataOutStageCallback(PCD_HandleTypeDef *hpcd, uint8_t epnum)
#else
void HAL_PCD_DataOutStageCallback(PCD_HandleTypeDef *hpcd, uint8_t epnum)
#endif /* USE_HAL_PCD_REGISTER_CALLBACKS */
{
  USBD_LL_DataOutStage((USBD_HandleTypeDef*)hpcd->pData, epnum, hpcd->OUT_ep[epnum].xfer_buff);
 8002c6a:	014b      	lsls	r3, r1, #5
 8002c6c:	18c3      	adds	r3, r0, r3
 8002c6e:	33fc      	adds	r3, #252	; 0xfc
 8002c70:	6c1a      	ldr	r2, [r3, #64]	; 0x40
 8002c72:	239c      	movs	r3, #156	; 0x9c
{
 8002c74:	b510      	push	{r4, lr}
  USBD_LL_DataOutStage((USBD_HandleTypeDef*)hpcd->pData, epnum, hpcd->OUT_ep[epnum].xfer_buff);
 8002c76:	009b      	lsls	r3, r3, #2
 8002c78:	58c0      	ldr	r0, [r0, r3]
 8002c7a:	f7ff fb61 	bl	8002340 <USBD_LL_DataOutStage>
}
 8002c7e:	bd10      	pop	{r4, pc}

08002c80 <HAL_PCD_DataInStageCallback>:
static void PCD_DataInStageCallback(PCD_HandleTypeDef *hpcd, uint8_t epnum)
#else
void HAL_PCD_DataInStageCallback(PCD_HandleTypeDef *hpcd, uint8_t epnum)
#endif /* USE_HAL_PCD_REGISTER_CALLBACKS */
{
  USBD_LL_DataInStage((USBD_HandleTypeDef*)hpcd->pData, epnum, hpcd->IN_ep[epnum].xfer_buff);
 8002c80:	014b      	lsls	r3, r1, #5
 8002c82:	18c3      	adds	r3, r0, r3
 8002c84:	6bda      	ldr	r2, [r3, #60]	; 0x3c
 8002c86:	239c      	movs	r3, #156	; 0x9c
{
 8002c88:	b510      	push	{r4, lr}
  USBD_LL_DataInStage((USBD_HandleTypeDef*)hpcd->pData, epnum, hpcd->IN_ep[epnum].xfer_buff);
 8002c8a:	009b      	lsls	r3, r3, #2
 8002c8c:	58c0      	ldr	r0, [r0, r3]
 8002c8e:	f7ff fb9b 	bl	80023c8 <USBD_LL_DataInStage>
}
 8002c92:	bd10      	pop	{r4, pc}

08002c94 <HAL_PCD_SOFCallback>:
static void PCD_SOFCallback(PCD_HandleTypeDef *hpcd)
#else
void HAL_PCD_SOFCallback(PCD_HandleTypeDef *hpcd)
#endif /* USE_HAL_PCD_REGISTER_CALLBACKS */
{
  USBD_LL_SOF((USBD_HandleTypeDef*)hpcd->pData);
 8002c94:	239c      	movs	r3, #156	; 0x9c
{
 8002c96:	b510      	push	{r4, lr}
  USBD_LL_SOF((USBD_HandleTypeDef*)hpcd->pData);
 8002c98:	009b      	lsls	r3, r3, #2
 8002c9a:	58c0      	ldr	r0, [r0, r3]
 8002c9c:	f7ff fc3c 	bl	8002518 <USBD_LL_SOF>
}
 8002ca0:	bd10      	pop	{r4, pc}

08002ca2 <HAL_PCD_ResetCallback>:
void HAL_PCD_ResetCallback(PCD_HandleTypeDef *hpcd)
#endif /* USE_HAL_PCD_REGISTER_CALLBACKS */
{
  USBD_SpeedTypeDef speed = USBD_SPEED_FULL;

  if ( hpcd->Init.speed != PCD_SPEED_FULL)
 8002ca2:	6883      	ldr	r3, [r0, #8]
{
 8002ca4:	b570      	push	{r4, r5, r6, lr}
 8002ca6:	0004      	movs	r4, r0
  if ( hpcd->Init.speed != PCD_SPEED_FULL)
 8002ca8:	2b02      	cmp	r3, #2
 8002caa:	d001      	beq.n	8002cb0 <HAL_PCD_ResetCallback+0xe>
  {
    Error_Handler();
 8002cac:	f7fd fc6e 	bl	800058c <Error_Handler>
  }
    /* Set Speed. */
  USBD_LL_SetSpeed((USBD_HandleTypeDef*)hpcd->pData, speed);
 8002cb0:	259c      	movs	r5, #156	; 0x9c
 8002cb2:	00ad      	lsls	r5, r5, #2
 8002cb4:	2101      	movs	r1, #1
 8002cb6:	5960      	ldr	r0, [r4, r5]
 8002cb8:	f7ff fc13 	bl	80024e2 <USBD_LL_SetSpeed>

  /* Reset Device. */
  USBD_LL_Reset((USBD_HandleTypeDef*)hpcd->pData);
 8002cbc:	5960      	ldr	r0, [r4, r5]
 8002cbe:	f7ff fbe6 	bl	800248e <USBD_LL_Reset>
}
 8002cc2:	bd70      	pop	{r4, r5, r6, pc}

08002cc4 <HAL_PCD_SuspendCallback>:
#else
void HAL_PCD_SuspendCallback(PCD_HandleTypeDef *hpcd)
#endif /* USE_HAL_PCD_REGISTER_CALLBACKS */
{
  /* Inform USB library that core enters in suspend Mode. */
  USBD_LL_Suspend((USBD_HandleTypeDef*)hpcd->pData);
 8002cc4:	239c      	movs	r3, #156	; 0x9c
{
 8002cc6:	b510      	push	{r4, lr}
 8002cc8:	0004      	movs	r4, r0
  USBD_LL_Suspend((USBD_HandleTypeDef*)hpcd->pData);
 8002cca:	009b      	lsls	r3, r3, #2
 8002ccc:	58c0      	ldr	r0, [r0, r3]
 8002cce:	f7ff fc0b 	bl	80024e8 <USBD_LL_Suspend>
  /* Enter in STOP mode. */
  /* USER CODE BEGIN 2 */
  if (hpcd->Init.low_power_enable)
 8002cd2:	69a3      	ldr	r3, [r4, #24]
 8002cd4:	2b00      	cmp	r3, #0
 8002cd6:	d004      	beq.n	8002ce2 <HAL_PCD_SuspendCallback+0x1e>
  {
    /* Set SLEEPDEEP bit and SleepOnExit of Cortex System Control Register. */
    SCB->SCR |= (uint32_t)((uint32_t)(SCB_SCR_SLEEPDEEP_Msk | SCB_SCR_SLEEPONEXIT_Msk));
 8002cd8:	2306      	movs	r3, #6
 8002cda:	4a02      	ldr	r2, [pc, #8]	; (8002ce4 <HAL_PCD_SuspendCallback+0x20>)
 8002cdc:	6911      	ldr	r1, [r2, #16]
 8002cde:	430b      	orrs	r3, r1
 8002ce0:	6113      	str	r3, [r2, #16]
  }
  /* USER CODE END 2 */
}
 8002ce2:	bd10      	pop	{r4, pc}
 8002ce4:	e000ed00 	.word	0xe000ed00

08002ce8 <HAL_PCD_ResumeCallback>:
#else
void HAL_PCD_ResumeCallback(PCD_HandleTypeDef *hpcd)
#endif /* USE_HAL_PCD_REGISTER_CALLBACKS */
{
  /* USER CODE BEGIN 3 */
  if (hpcd->Init.low_power_enable)
 8002ce8:	6983      	ldr	r3, [r0, #24]
{
 8002cea:	b510      	push	{r4, lr}
 8002cec:	0004      	movs	r4, r0
  if (hpcd->Init.low_power_enable)
 8002cee:	2b00      	cmp	r3, #0
 8002cf0:	d006      	beq.n	8002d00 <HAL_PCD_ResumeCallback+0x18>
  {
    /* Reset SLEEPDEEP bit of Cortex System Control Register. */
    SCB->SCR &= (uint32_t)~((uint32_t)(SCB_SCR_SLEEPDEEP_Msk | SCB_SCR_SLEEPONEXIT_Msk));
 8002cf2:	2106      	movs	r1, #6
 8002cf4:	4a05      	ldr	r2, [pc, #20]	; (8002d0c <HAL_PCD_ResumeCallback+0x24>)
 8002cf6:	6913      	ldr	r3, [r2, #16]
 8002cf8:	438b      	bics	r3, r1
 8002cfa:	6113      	str	r3, [r2, #16]
  *         enable HSI, PLL and select PLL as system clock source.
  * @retval None
  */
static void SystemClockConfig_Resume(void)
{
  SystemClock_Config();
 8002cfc:	f7fd faa4 	bl	8000248 <SystemClock_Config>
  USBD_LL_Resume((USBD_HandleTypeDef*)hpcd->pData);
 8002d00:	239c      	movs	r3, #156	; 0x9c
 8002d02:	009b      	lsls	r3, r3, #2
 8002d04:	58e0      	ldr	r0, [r4, r3]
 8002d06:	f7ff fbfb 	bl	8002500 <USBD_LL_Resume>
}
 8002d0a:	bd10      	pop	{r4, pc}
 8002d0c:	e000ed00 	.word	0xe000ed00

08002d10 <USBD_LL_Init>:
  hpcd_USB_FS.pData = pdev;
 8002d10:	239c      	movs	r3, #156	; 0x9c
{
 8002d12:	b570      	push	{r4, r5, r6, lr}
 8002d14:	0005      	movs	r5, r0
  hpcd_USB_FS.pData = pdev;
 8002d16:	481c      	ldr	r0, [pc, #112]	; (8002d88 <USBD_LL_Init+0x78>)
 8002d18:	009b      	lsls	r3, r3, #2
 8002d1a:	50c5      	str	r5, [r0, r3]
  hpcd_USB_FS.Instance = USB;
 8002d1c:	4b1b      	ldr	r3, [pc, #108]	; (8002d8c <USBD_LL_Init+0x7c>)
  pdev->pData = &hpcd_USB_FS;
 8002d1e:	24b0      	movs	r4, #176	; 0xb0
  hpcd_USB_FS.Instance = USB;
 8002d20:	6003      	str	r3, [r0, #0]
  hpcd_USB_FS.Init.dev_endpoints = 8;
 8002d22:	2308      	movs	r3, #8
 8002d24:	6043      	str	r3, [r0, #4]
  hpcd_USB_FS.Init.speed = PCD_SPEED_FULL;
 8002d26:	3b06      	subs	r3, #6
 8002d28:	6083      	str	r3, [r0, #8]
  hpcd_USB_FS.Init.phy_itface = PCD_PHY_EMBEDDED;
 8002d2a:	6103      	str	r3, [r0, #16]
  hpcd_USB_FS.Init.low_power_enable = DISABLE;
 8002d2c:	2300      	movs	r3, #0
  pdev->pData = &hpcd_USB_FS;
 8002d2e:	00a4      	lsls	r4, r4, #2
 8002d30:	5128      	str	r0, [r5, r4]
  hpcd_USB_FS.Init.low_power_enable = DISABLE;
 8002d32:	6183      	str	r3, [r0, #24]
  hpcd_USB_FS.Init.lpm_enable = DISABLE;
 8002d34:	61c3      	str	r3, [r0, #28]
  hpcd_USB_FS.Init.battery_charging_enable = DISABLE;
 8002d36:	6203      	str	r3, [r0, #32]
  if (HAL_PCD_Init(&hpcd_USB_FS) != HAL_OK)
 8002d38:	f7fe f910 	bl	8000f5c <HAL_PCD_Init>
 8002d3c:	2800      	cmp	r0, #0
 8002d3e:	d001      	beq.n	8002d44 <USBD_LL_Init+0x34>
    Error_Handler( );
 8002d40:	f7fd fc24 	bl	800058c <Error_Handler>
  HAL_PCDEx_PMAConfig((PCD_HandleTypeDef*)pdev->pData , 0x00 , PCD_SNG_BUF, 0x18);
 8002d44:	2200      	movs	r2, #0
 8002d46:	5928      	ldr	r0, [r5, r4]
 8002d48:	0011      	movs	r1, r2
 8002d4a:	2318      	movs	r3, #24
 8002d4c:	f7fe fcc7 	bl	80016de <HAL_PCDEx_PMAConfig>
  HAL_PCDEx_PMAConfig((PCD_HandleTypeDef*)pdev->pData , 0x80 , PCD_SNG_BUF, 0x58);
 8002d50:	5928      	ldr	r0, [r5, r4]
 8002d52:	2358      	movs	r3, #88	; 0x58
 8002d54:	2200      	movs	r2, #0
 8002d56:	2180      	movs	r1, #128	; 0x80
 8002d58:	f7fe fcc1 	bl	80016de <HAL_PCDEx_PMAConfig>
  HAL_PCDEx_PMAConfig((PCD_HandleTypeDef*)pdev->pData , 0x81 , PCD_SNG_BUF, 0xC0);
 8002d5c:	5928      	ldr	r0, [r5, r4]
 8002d5e:	23c0      	movs	r3, #192	; 0xc0
 8002d60:	2200      	movs	r2, #0
 8002d62:	2181      	movs	r1, #129	; 0x81
 8002d64:	f7fe fcbb 	bl	80016de <HAL_PCDEx_PMAConfig>
  HAL_PCDEx_PMAConfig((PCD_HandleTypeDef*)pdev->pData , 0x01 , PCD_SNG_BUF, 0x110);
 8002d68:	2388      	movs	r3, #136	; 0x88
 8002d6a:	5928      	ldr	r0, [r5, r4]
 8002d6c:	005b      	lsls	r3, r3, #1
 8002d6e:	2200      	movs	r2, #0
 8002d70:	2101      	movs	r1, #1
 8002d72:	f7fe fcb4 	bl	80016de <HAL_PCDEx_PMAConfig>
  HAL_PCDEx_PMAConfig((PCD_HandleTypeDef*)pdev->pData , 0x82 , PCD_SNG_BUF, 0x100);
 8002d76:	2380      	movs	r3, #128	; 0x80
 8002d78:	5928      	ldr	r0, [r5, r4]
 8002d7a:	005b      	lsls	r3, r3, #1
 8002d7c:	2200      	movs	r2, #0
 8002d7e:	2182      	movs	r1, #130	; 0x82
 8002d80:	f7fe fcad 	bl	80016de <HAL_PCDEx_PMAConfig>
}
 8002d84:	2000      	movs	r0, #0
 8002d86:	bd70      	pop	{r4, r5, r6, pc}
 8002d88:	20000864 	.word	0x20000864
 8002d8c:	40005c00 	.word	0x40005c00

08002d90 <USBD_LL_Start>:
  hal_status = HAL_PCD_Start(pdev->pData);
 8002d90:	23b0      	movs	r3, #176	; 0xb0
 8002d92:	009b      	lsls	r3, r3, #2
 8002d94:	58c0      	ldr	r0, [r0, r3]
{
 8002d96:	b510      	push	{r4, lr}
  hal_status = HAL_PCD_Start(pdev->pData);
 8002d98:	f7fe f942 	bl	8001020 <HAL_PCD_Start>
 8002d9c:	2302      	movs	r3, #2
 8002d9e:	2803      	cmp	r0, #3
 8002da0:	d801      	bhi.n	8002da6 <USBD_LL_Start+0x16>
 8002da2:	4b02      	ldr	r3, [pc, #8]	; (8002dac <USBD_LL_Start+0x1c>)
 8002da4:	5c1b      	ldrb	r3, [r3, r0]
}
 8002da6:	0018      	movs	r0, r3
 8002da8:	bd10      	pop	{r4, pc}
 8002daa:	46c0      	nop			; (mov r8, r8)
 8002dac:	08002f9e 	.word	0x08002f9e

08002db0 <USBD_LL_OpenEP>:
{
 8002db0:	b510      	push	{r4, lr}
 8002db2:	0014      	movs	r4, r2
 8002db4:	001a      	movs	r2, r3
  hal_status = HAL_PCD_EP_Open(pdev->pData, ep_addr, ep_mps, ep_type);
 8002db6:	0023      	movs	r3, r4
 8002db8:	24b0      	movs	r4, #176	; 0xb0
 8002dba:	00a4      	lsls	r4, r4, #2
 8002dbc:	5900      	ldr	r0, [r0, r4]
 8002dbe:	f7fe f954 	bl	800106a <HAL_PCD_EP_Open>
 8002dc2:	2302      	movs	r3, #2
 8002dc4:	2803      	cmp	r0, #3
 8002dc6:	d801      	bhi.n	8002dcc <USBD_LL_OpenEP+0x1c>
 8002dc8:	4b01      	ldr	r3, [pc, #4]	; (8002dd0 <USBD_LL_OpenEP+0x20>)
 8002dca:	5c1b      	ldrb	r3, [r3, r0]
}
 8002dcc:	0018      	movs	r0, r3
 8002dce:	bd10      	pop	{r4, pc}
 8002dd0:	08002f9e 	.word	0x08002f9e

08002dd4 <USBD_LL_CloseEP>:
  hal_status = HAL_PCD_EP_Close(pdev->pData, ep_addr);
 8002dd4:	23b0      	movs	r3, #176	; 0xb0
 8002dd6:	009b      	lsls	r3, r3, #2
 8002dd8:	58c0      	ldr	r0, [r0, r3]
{
 8002dda:	b510      	push	{r4, lr}
  hal_status = HAL_PCD_EP_Close(pdev->pData, ep_addr);
 8002ddc:	f7fe f975 	bl	80010ca <HAL_PCD_EP_Close>
 8002de0:	2302      	movs	r3, #2
 8002de2:	2803      	cmp	r0, #3
 8002de4:	d801      	bhi.n	8002dea <USBD_LL_CloseEP+0x16>
 8002de6:	4b02      	ldr	r3, [pc, #8]	; (8002df0 <USBD_LL_CloseEP+0x1c>)
 8002de8:	5c1b      	ldrb	r3, [r3, r0]
}
 8002dea:	0018      	movs	r0, r3
 8002dec:	bd10      	pop	{r4, pc}
 8002dee:	46c0      	nop			; (mov r8, r8)
 8002df0:	08002f9e 	.word	0x08002f9e

08002df4 <USBD_LL_StallEP>:
  hal_status = HAL_PCD_EP_SetStall(pdev->pData, ep_addr);
 8002df4:	23b0      	movs	r3, #176	; 0xb0
 8002df6:	009b      	lsls	r3, r3, #2
 8002df8:	58c0      	ldr	r0, [r0, r3]
{
 8002dfa:	b510      	push	{r4, lr}
  hal_status = HAL_PCD_EP_SetStall(pdev->pData, ep_addr);
 8002dfc:	f7fe fc0e 	bl	800161c <HAL_PCD_EP_SetStall>
 8002e00:	2302      	movs	r3, #2
 8002e02:	2803      	cmp	r0, #3
 8002e04:	d801      	bhi.n	8002e0a <USBD_LL_StallEP+0x16>
 8002e06:	4b02      	ldr	r3, [pc, #8]	; (8002e10 <USBD_LL_StallEP+0x1c>)
 8002e08:	5c1b      	ldrb	r3, [r3, r0]
}
 8002e0a:	0018      	movs	r0, r3
 8002e0c:	bd10      	pop	{r4, pc}
 8002e0e:	46c0      	nop			; (mov r8, r8)
 8002e10:	08002f9e 	.word	0x08002f9e

08002e14 <USBD_LL_ClearStallEP>:
  hal_status = HAL_PCD_EP_ClrStall(pdev->pData, ep_addr);
 8002e14:	23b0      	movs	r3, #176	; 0xb0
 8002e16:	009b      	lsls	r3, r3, #2
 8002e18:	58c0      	ldr	r0, [r0, r3]
{
 8002e1a:	b510      	push	{r4, lr}
  hal_status = HAL_PCD_EP_ClrStall(pdev->pData, ep_addr);
 8002e1c:	f7fe fc33 	bl	8001686 <HAL_PCD_EP_ClrStall>
 8002e20:	2302      	movs	r3, #2
 8002e22:	2803      	cmp	r0, #3
 8002e24:	d801      	bhi.n	8002e2a <USBD_LL_ClearStallEP+0x16>
 8002e26:	4b02      	ldr	r3, [pc, #8]	; (8002e30 <USBD_LL_ClearStallEP+0x1c>)
 8002e28:	5c1b      	ldrb	r3, [r3, r0]
}
 8002e2a:	0018      	movs	r0, r3
 8002e2c:	bd10      	pop	{r4, pc}
 8002e2e:	46c0      	nop			; (mov r8, r8)
 8002e30:	08002f9e 	.word	0x08002f9e

08002e34 <USBD_LL_IsStallEP>:
  PCD_HandleTypeDef *hpcd = (PCD_HandleTypeDef*) pdev->pData;
 8002e34:	23b0      	movs	r3, #176	; 0xb0
  if((ep_addr & 0x80) == 0x80)
 8002e36:	b24a      	sxtb	r2, r1
  PCD_HandleTypeDef *hpcd = (PCD_HandleTypeDef*) pdev->pData;
 8002e38:	009b      	lsls	r3, r3, #2
 8002e3a:	58c3      	ldr	r3, [r0, r3]
  if((ep_addr & 0x80) == 0x80)
 8002e3c:	2a00      	cmp	r2, #0
 8002e3e:	da06      	bge.n	8002e4e <USBD_LL_IsStallEP+0x1a>
    return hpcd->IN_ep[ep_addr & 0x7F].is_stall;
 8002e40:	227f      	movs	r2, #127	; 0x7f
 8002e42:	4011      	ands	r1, r2
 8002e44:	0149      	lsls	r1, r1, #5
 8002e46:	185b      	adds	r3, r3, r1
 8002e48:	332a      	adds	r3, #42	; 0x2a
    return hpcd->OUT_ep[ep_addr & 0x7F].is_stall;
 8002e4a:	7818      	ldrb	r0, [r3, #0]
}
 8002e4c:	4770      	bx	lr
    return hpcd->OUT_ep[ep_addr & 0x7F].is_stall;
 8002e4e:	0149      	lsls	r1, r1, #5
 8002e50:	185b      	adds	r3, r3, r1
 8002e52:	332b      	adds	r3, #43	; 0x2b
 8002e54:	33ff      	adds	r3, #255	; 0xff
 8002e56:	e7f8      	b.n	8002e4a <USBD_LL_IsStallEP+0x16>

08002e58 <USBD_LL_SetUSBAddress>:
  hal_status = HAL_PCD_SetAddress(pdev->pData, dev_addr);
 8002e58:	23b0      	movs	r3, #176	; 0xb0
 8002e5a:	009b      	lsls	r3, r3, #2
 8002e5c:	58c0      	ldr	r0, [r0, r3]
{
 8002e5e:	b510      	push	{r4, lr}
  hal_status = HAL_PCD_SetAddress(pdev->pData, dev_addr);
 8002e60:	f7fe f8f1 	bl	8001046 <HAL_PCD_SetAddress>
 8002e64:	2302      	movs	r3, #2
 8002e66:	2803      	cmp	r0, #3
 8002e68:	d801      	bhi.n	8002e6e <USBD_LL_SetUSBAddress+0x16>
 8002e6a:	4b02      	ldr	r3, [pc, #8]	; (8002e74 <USBD_LL_SetUSBAddress+0x1c>)
 8002e6c:	5c1b      	ldrb	r3, [r3, r0]
}
 8002e6e:	0018      	movs	r0, r3
 8002e70:	bd10      	pop	{r4, pc}
 8002e72:	46c0      	nop			; (mov r8, r8)
 8002e74:	08002f9e 	.word	0x08002f9e

08002e78 <USBD_LL_Transmit>:
{
 8002e78:	b510      	push	{r4, lr}
  hal_status = HAL_PCD_EP_Transmit(pdev->pData, ep_addr, pbuf, size);
 8002e7a:	24b0      	movs	r4, #176	; 0xb0
 8002e7c:	00a4      	lsls	r4, r4, #2
 8002e7e:	5900      	ldr	r0, [r0, r4]
 8002e80:	f7fe f969 	bl	8001156 <HAL_PCD_EP_Transmit>
 8002e84:	2302      	movs	r3, #2
 8002e86:	2803      	cmp	r0, #3
 8002e88:	d801      	bhi.n	8002e8e <USBD_LL_Transmit+0x16>
 8002e8a:	4b02      	ldr	r3, [pc, #8]	; (8002e94 <USBD_LL_Transmit+0x1c>)
 8002e8c:	5c1b      	ldrb	r3, [r3, r0]
}
 8002e8e:	0018      	movs	r0, r3
 8002e90:	bd10      	pop	{r4, pc}
 8002e92:	46c0      	nop			; (mov r8, r8)
 8002e94:	08002f9e 	.word	0x08002f9e

08002e98 <USBD_LL_PrepareReceive>:
{
 8002e98:	b510      	push	{r4, lr}
  hal_status = HAL_PCD_EP_Receive(pdev->pData, ep_addr, pbuf, size);
 8002e9a:	24b0      	movs	r4, #176	; 0xb0
 8002e9c:	00a4      	lsls	r4, r4, #2
 8002e9e:	5900      	ldr	r0, [r0, r4]
 8002ea0:	f7fe f937 	bl	8001112 <HAL_PCD_EP_Receive>
 8002ea4:	2302      	movs	r3, #2
 8002ea6:	2803      	cmp	r0, #3
 8002ea8:	d801      	bhi.n	8002eae <USBD_LL_PrepareReceive+0x16>
 8002eaa:	4b02      	ldr	r3, [pc, #8]	; (8002eb4 <USBD_LL_PrepareReceive+0x1c>)
 8002eac:	5c1b      	ldrb	r3, [r3, r0]
}
 8002eae:	0018      	movs	r0, r3
 8002eb0:	bd10      	pop	{r4, pc}
 8002eb2:	46c0      	nop			; (mov r8, r8)
 8002eb4:	08002f9e 	.word	0x08002f9e

08002eb8 <USBD_LL_GetRxDataSize>:
  return HAL_PCD_EP_GetRxCount((PCD_HandleTypeDef*) pdev->pData, ep_addr);
 8002eb8:	23b0      	movs	r3, #176	; 0xb0
{
 8002eba:	b510      	push	{r4, lr}
  return HAL_PCD_EP_GetRxCount((PCD_HandleTypeDef*) pdev->pData, ep_addr);
 8002ebc:	009b      	lsls	r3, r3, #2
 8002ebe:	58c0      	ldr	r0, [r0, r3]
 8002ec0:	f7fe f942 	bl	8001148 <HAL_PCD_EP_GetRxCount>
}
 8002ec4:	bd10      	pop	{r4, pc}
	...

08002ec8 <USBD_static_malloc>:
}
 8002ec8:	4800      	ldr	r0, [pc, #0]	; (8002ecc <USBD_static_malloc+0x4>)
 8002eca:	4770      	bx	lr
 8002ecc:	2000019c 	.word	0x2000019c

08002ed0 <USBD_static_free>:
}
 8002ed0:	4770      	bx	lr
	...

08002ed4 <__libc_init_array>:
 8002ed4:	b570      	push	{r4, r5, r6, lr}
 8002ed6:	2600      	movs	r6, #0
 8002ed8:	4d0c      	ldr	r5, [pc, #48]	; (8002f0c <__libc_init_array+0x38>)
 8002eda:	4c0d      	ldr	r4, [pc, #52]	; (8002f10 <__libc_init_array+0x3c>)
 8002edc:	1b64      	subs	r4, r4, r5
 8002ede:	10a4      	asrs	r4, r4, #2
 8002ee0:	42a6      	cmp	r6, r4
 8002ee2:	d109      	bne.n	8002ef8 <__libc_init_array+0x24>
 8002ee4:	2600      	movs	r6, #0
 8002ee6:	f000 f821 	bl	8002f2c <_init>
 8002eea:	4d0a      	ldr	r5, [pc, #40]	; (8002f14 <__libc_init_array+0x40>)
 8002eec:	4c0a      	ldr	r4, [pc, #40]	; (8002f18 <__libc_init_array+0x44>)
 8002eee:	1b64      	subs	r4, r4, r5
 8002ef0:	10a4      	asrs	r4, r4, #2
 8002ef2:	42a6      	cmp	r6, r4
 8002ef4:	d105      	bne.n	8002f02 <__libc_init_array+0x2e>
 8002ef6:	bd70      	pop	{r4, r5, r6, pc}
 8002ef8:	00b3      	lsls	r3, r6, #2
 8002efa:	58eb      	ldr	r3, [r5, r3]
 8002efc:	4798      	blx	r3
 8002efe:	3601      	adds	r6, #1
 8002f00:	e7ee      	b.n	8002ee0 <__libc_init_array+0xc>
 8002f02:	00b3      	lsls	r3, r6, #2
 8002f04:	58eb      	ldr	r3, [r5, r3]
 8002f06:	4798      	blx	r3
 8002f08:	3601      	adds	r6, #1
 8002f0a:	e7f2      	b.n	8002ef2 <__libc_init_array+0x1e>
 8002f0c:	08002fa4 	.word	0x08002fa4
 8002f10:	08002fa4 	.word	0x08002fa4
 8002f14:	08002fa4 	.word	0x08002fa4
 8002f18:	08002fa8 	.word	0x08002fa8

08002f1c <memset>:
 8002f1c:	0003      	movs	r3, r0
 8002f1e:	1812      	adds	r2, r2, r0
 8002f20:	4293      	cmp	r3, r2
 8002f22:	d100      	bne.n	8002f26 <memset+0xa>
 8002f24:	4770      	bx	lr
 8002f26:	7019      	strb	r1, [r3, #0]
 8002f28:	3301      	adds	r3, #1
 8002f2a:	e7f9      	b.n	8002f20 <memset+0x4>

08002f2c <_init>:
 8002f2c:	b5f8      	push	{r3, r4, r5, r6, r7, lr}
 8002f2e:	46c0      	nop			; (mov r8, r8)
 8002f30:	bcf8      	pop	{r3, r4, r5, r6, r7}
 8002f32:	bc08      	pop	{r3}
 8002f34:	469e      	mov	lr, r3
 8002f36:	4770      	bx	lr

08002f38 <_fini>:
 8002f38:	b5f8      	push	{r3, r4, r5, r6, r7, lr}
 8002f3a:	46c0      	nop			; (mov r8, r8)
 8002f3c:	bcf8      	pop	{r3, r4, r5, r6, r7}
 8002f3e:	bc08      	pop	{r3}
 8002f40:	469e      	mov	lr, r3
 8002f42:	4770      	bx	lr
